
ctarget:     file format elf64-x86-64


Disassembly of section .init:

0000000000400ce8 <_init>:
  400ce8:	48 83 ec 08          	sub    $0x8,%rsp
  400cec:	48 8b 05 05 33 20 00 	mov    0x203305(%rip),%rax        # 603ff8 <__gmon_start__>
  400cf3:	48 85 c0             	test   %rax,%rax
  400cf6:	74 02                	je     400cfa <_init+0x12>
  400cf8:	ff d0                	callq  *%rax
  400cfa:	48 83 c4 08          	add    $0x8,%rsp
  400cfe:	c3                   	retq   

Disassembly of section .plt:

0000000000400d00 <.plt>:
  400d00:	ff 35 02 33 20 00    	pushq  0x203302(%rip)        # 604008 <_GLOBAL_OFFSET_TABLE_+0x8>
  400d06:	ff 25 04 33 20 00    	jmpq   *0x203304(%rip)        # 604010 <_GLOBAL_OFFSET_TABLE_+0x10>
  400d0c:	0f 1f 40 00          	nopl   0x0(%rax)

0000000000400d10 <strcasecmp@plt>:
  400d10:	ff 25 02 33 20 00    	jmpq   *0x203302(%rip)        # 604018 <strcasecmp@GLIBC_2.2.5>
  400d16:	68 00 00 00 00       	pushq  $0x0
  400d1b:	e9 e0 ff ff ff       	jmpq   400d00 <.plt>

0000000000400d20 <__errno_location@plt>:
  400d20:	ff 25 fa 32 20 00    	jmpq   *0x2032fa(%rip)        # 604020 <__errno_location@GLIBC_2.2.5>
  400d26:	68 01 00 00 00       	pushq  $0x1
  400d2b:	e9 d0 ff ff ff       	jmpq   400d00 <.plt>

0000000000400d30 <srandom@plt>:
  400d30:	ff 25 f2 32 20 00    	jmpq   *0x2032f2(%rip)        # 604028 <srandom@GLIBC_2.2.5>
  400d36:	68 02 00 00 00       	pushq  $0x2
  400d3b:	e9 c0 ff ff ff       	jmpq   400d00 <.plt>

0000000000400d40 <strncmp@plt>:
  400d40:	ff 25 ea 32 20 00    	jmpq   *0x2032ea(%rip)        # 604030 <strncmp@GLIBC_2.2.5>
  400d46:	68 03 00 00 00       	pushq  $0x3
  400d4b:	e9 b0 ff ff ff       	jmpq   400d00 <.plt>

0000000000400d50 <strcpy@plt>:
  400d50:	ff 25 e2 32 20 00    	jmpq   *0x2032e2(%rip)        # 604038 <strcpy@GLIBC_2.2.5>
  400d56:	68 04 00 00 00       	pushq  $0x4
  400d5b:	e9 a0 ff ff ff       	jmpq   400d00 <.plt>

0000000000400d60 <puts@plt>:
  400d60:	ff 25 da 32 20 00    	jmpq   *0x2032da(%rip)        # 604040 <puts@GLIBC_2.2.5>
  400d66:	68 05 00 00 00       	pushq  $0x5
  400d6b:	e9 90 ff ff ff       	jmpq   400d00 <.plt>

0000000000400d70 <write@plt>:
  400d70:	ff 25 d2 32 20 00    	jmpq   *0x2032d2(%rip)        # 604048 <write@GLIBC_2.2.5>
  400d76:	68 06 00 00 00       	pushq  $0x6
  400d7b:	e9 80 ff ff ff       	jmpq   400d00 <.plt>

0000000000400d80 <mmap@plt>:
  400d80:	ff 25 ca 32 20 00    	jmpq   *0x2032ca(%rip)        # 604050 <mmap@GLIBC_2.2.5>
  400d86:	68 07 00 00 00       	pushq  $0x7
  400d8b:	e9 70 ff ff ff       	jmpq   400d00 <.plt>

0000000000400d90 <printf@plt>:
  400d90:	ff 25 c2 32 20 00    	jmpq   *0x2032c2(%rip)        # 604058 <printf@GLIBC_2.2.5>
  400d96:	68 08 00 00 00       	pushq  $0x8
  400d9b:	e9 60 ff ff ff       	jmpq   400d00 <.plt>

0000000000400da0 <memset@plt>:
  400da0:	ff 25 ba 32 20 00    	jmpq   *0x2032ba(%rip)        # 604060 <memset@GLIBC_2.2.5>
  400da6:	68 09 00 00 00       	pushq  $0x9
  400dab:	e9 50 ff ff ff       	jmpq   400d00 <.plt>

0000000000400db0 <alarm@plt>:
  400db0:	ff 25 b2 32 20 00    	jmpq   *0x2032b2(%rip)        # 604068 <alarm@GLIBC_2.2.5>
  400db6:	68 0a 00 00 00       	pushq  $0xa
  400dbb:	e9 40 ff ff ff       	jmpq   400d00 <.plt>

0000000000400dc0 <close@plt>:
  400dc0:	ff 25 aa 32 20 00    	jmpq   *0x2032aa(%rip)        # 604070 <close@GLIBC_2.2.5>
  400dc6:	68 0b 00 00 00       	pushq  $0xb
  400dcb:	e9 30 ff ff ff       	jmpq   400d00 <.plt>

0000000000400dd0 <read@plt>:
  400dd0:	ff 25 a2 32 20 00    	jmpq   *0x2032a2(%rip)        # 604078 <read@GLIBC_2.2.5>
  400dd6:	68 0c 00 00 00       	pushq  $0xc
  400ddb:	e9 20 ff ff ff       	jmpq   400d00 <.plt>

0000000000400de0 <signal@plt>:
  400de0:	ff 25 9a 32 20 00    	jmpq   *0x20329a(%rip)        # 604080 <signal@GLIBC_2.2.5>
  400de6:	68 0d 00 00 00       	pushq  $0xd
  400deb:	e9 10 ff ff ff       	jmpq   400d00 <.plt>

0000000000400df0 <gethostbyname@plt>:
  400df0:	ff 25 92 32 20 00    	jmpq   *0x203292(%rip)        # 604088 <gethostbyname@GLIBC_2.2.5>
  400df6:	68 0e 00 00 00       	pushq  $0xe
  400dfb:	e9 00 ff ff ff       	jmpq   400d00 <.plt>

0000000000400e00 <fprintf@plt>:
  400e00:	ff 25 8a 32 20 00    	jmpq   *0x20328a(%rip)        # 604090 <fprintf@GLIBC_2.2.5>
  400e06:	68 0f 00 00 00       	pushq  $0xf
  400e0b:	e9 f0 fe ff ff       	jmpq   400d00 <.plt>

0000000000400e10 <strtol@plt>:
  400e10:	ff 25 82 32 20 00    	jmpq   *0x203282(%rip)        # 604098 <strtol@GLIBC_2.2.5>
  400e16:	68 10 00 00 00       	pushq  $0x10
  400e1b:	e9 e0 fe ff ff       	jmpq   400d00 <.plt>

0000000000400e20 <memcpy@plt>:
  400e20:	ff 25 7a 32 20 00    	jmpq   *0x20327a(%rip)        # 6040a0 <memcpy@GLIBC_2.14>
  400e26:	68 11 00 00 00       	pushq  $0x11
  400e2b:	e9 d0 fe ff ff       	jmpq   400d00 <.plt>

0000000000400e30 <time@plt>:
  400e30:	ff 25 72 32 20 00    	jmpq   *0x203272(%rip)        # 6040a8 <time@GLIBC_2.2.5>
  400e36:	68 12 00 00 00       	pushq  $0x12
  400e3b:	e9 c0 fe ff ff       	jmpq   400d00 <.plt>

0000000000400e40 <random@plt>:
  400e40:	ff 25 6a 32 20 00    	jmpq   *0x20326a(%rip)        # 6040b0 <random@GLIBC_2.2.5>
  400e46:	68 13 00 00 00       	pushq  $0x13
  400e4b:	e9 b0 fe ff ff       	jmpq   400d00 <.plt>

0000000000400e50 <_IO_getc@plt>:
  400e50:	ff 25 62 32 20 00    	jmpq   *0x203262(%rip)        # 6040b8 <_IO_getc@GLIBC_2.2.5>
  400e56:	68 14 00 00 00       	pushq  $0x14
  400e5b:	e9 a0 fe ff ff       	jmpq   400d00 <.plt>

0000000000400e60 <__isoc99_sscanf@plt>:
  400e60:	ff 25 5a 32 20 00    	jmpq   *0x20325a(%rip)        # 6040c0 <__isoc99_sscanf@GLIBC_2.7>
  400e66:	68 15 00 00 00       	pushq  $0x15
  400e6b:	e9 90 fe ff ff       	jmpq   400d00 <.plt>

0000000000400e70 <munmap@plt>:
  400e70:	ff 25 52 32 20 00    	jmpq   *0x203252(%rip)        # 6040c8 <munmap@GLIBC_2.2.5>
  400e76:	68 16 00 00 00       	pushq  $0x16
  400e7b:	e9 80 fe ff ff       	jmpq   400d00 <.plt>

0000000000400e80 <bcopy@plt>:
  400e80:	ff 25 4a 32 20 00    	jmpq   *0x20324a(%rip)        # 6040d0 <bcopy@GLIBC_2.2.5>
  400e86:	68 17 00 00 00       	pushq  $0x17
  400e8b:	e9 70 fe ff ff       	jmpq   400d00 <.plt>

0000000000400e90 <fopen@plt>:
  400e90:	ff 25 42 32 20 00    	jmpq   *0x203242(%rip)        # 6040d8 <fopen@GLIBC_2.2.5>
  400e96:	68 18 00 00 00       	pushq  $0x18
  400e9b:	e9 60 fe ff ff       	jmpq   400d00 <.plt>

0000000000400ea0 <getopt@plt>:
  400ea0:	ff 25 3a 32 20 00    	jmpq   *0x20323a(%rip)        # 6040e0 <getopt@GLIBC_2.2.5>
  400ea6:	68 19 00 00 00       	pushq  $0x19
  400eab:	e9 50 fe ff ff       	jmpq   400d00 <.plt>

0000000000400eb0 <strtoul@plt>:
  400eb0:	ff 25 32 32 20 00    	jmpq   *0x203232(%rip)        # 6040e8 <strtoul@GLIBC_2.2.5>
  400eb6:	68 1a 00 00 00       	pushq  $0x1a
  400ebb:	e9 40 fe ff ff       	jmpq   400d00 <.plt>

0000000000400ec0 <gethostname@plt>:
  400ec0:	ff 25 2a 32 20 00    	jmpq   *0x20322a(%rip)        # 6040f0 <gethostname@GLIBC_2.2.5>
  400ec6:	68 1b 00 00 00       	pushq  $0x1b
  400ecb:	e9 30 fe ff ff       	jmpq   400d00 <.plt>

0000000000400ed0 <sprintf@plt>:
  400ed0:	ff 25 22 32 20 00    	jmpq   *0x203222(%rip)        # 6040f8 <sprintf@GLIBC_2.2.5>
  400ed6:	68 1c 00 00 00       	pushq  $0x1c
  400edb:	e9 20 fe ff ff       	jmpq   400d00 <.plt>

0000000000400ee0 <exit@plt>:
  400ee0:	ff 25 1a 32 20 00    	jmpq   *0x20321a(%rip)        # 604100 <exit@GLIBC_2.2.5>
  400ee6:	68 1d 00 00 00       	pushq  $0x1d
  400eeb:	e9 10 fe ff ff       	jmpq   400d00 <.plt>

0000000000400ef0 <connect@plt>:
  400ef0:	ff 25 12 32 20 00    	jmpq   *0x203212(%rip)        # 604108 <connect@GLIBC_2.2.5>
  400ef6:	68 1e 00 00 00       	pushq  $0x1e
  400efb:	e9 00 fe ff ff       	jmpq   400d00 <.plt>

0000000000400f00 <socket@plt>:
  400f00:	ff 25 0a 32 20 00    	jmpq   *0x20320a(%rip)        # 604110 <socket@GLIBC_2.2.5>
  400f06:	68 1f 00 00 00       	pushq  $0x1f
  400f0b:	e9 f0 fd ff ff       	jmpq   400d00 <.plt>

Disassembly of section .text:

0000000000400f10 <_start>:
  400f10:	31 ed                	xor    %ebp,%ebp
  400f12:	49 89 d1             	mov    %rdx,%r9
  400f15:	5e                   	pop    %rsi
  400f16:	48 89 e2             	mov    %rsp,%rdx
  400f19:	48 83 e4 f0          	and    $0xfffffffffffffff0,%rsp
  400f1d:	50                   	push   %rax
  400f1e:	54                   	push   %rsp
  400f1f:	49 c7 c0 90 2c 40 00 	mov    $0x402c90,%r8
  400f26:	48 c7 c1 20 2c 40 00 	mov    $0x402c20,%rcx
  400f2d:	48 c7 c7 b0 11 40 00 	mov    $0x4011b0,%rdi
  400f34:	ff 15 b6 30 20 00    	callq  *0x2030b6(%rip)        # 603ff0 <__libc_start_main@GLIBC_2.2.5>
  400f3a:	f4                   	hlt    
  400f3b:	0f 1f 44 00 00       	nopl   0x0(%rax,%rax,1)

0000000000400f40 <deregister_tm_clones>:
  400f40:	55                   	push   %rbp
  400f41:	b8 90 44 60 00       	mov    $0x604490,%eax
  400f46:	48 3d 90 44 60 00    	cmp    $0x604490,%rax
  400f4c:	48 89 e5             	mov    %rsp,%rbp
  400f4f:	74 17                	je     400f68 <deregister_tm_clones+0x28>
  400f51:	b8 00 00 00 00       	mov    $0x0,%eax
  400f56:	48 85 c0             	test   %rax,%rax
  400f59:	74 0d                	je     400f68 <deregister_tm_clones+0x28>
  400f5b:	5d                   	pop    %rbp
  400f5c:	bf 90 44 60 00       	mov    $0x604490,%edi
  400f61:	ff e0                	jmpq   *%rax
  400f63:	0f 1f 44 00 00       	nopl   0x0(%rax,%rax,1)
  400f68:	5d                   	pop    %rbp
  400f69:	c3                   	retq   
  400f6a:	66 0f 1f 44 00 00    	nopw   0x0(%rax,%rax,1)

0000000000400f70 <register_tm_clones>:
  400f70:	be 90 44 60 00       	mov    $0x604490,%esi
  400f75:	55                   	push   %rbp
  400f76:	48 81 ee 90 44 60 00 	sub    $0x604490,%rsi
  400f7d:	48 89 e5             	mov    %rsp,%rbp
  400f80:	48 c1 fe 03          	sar    $0x3,%rsi
  400f84:	48 89 f0             	mov    %rsi,%rax
  400f87:	48 c1 e8 3f          	shr    $0x3f,%rax
  400f8b:	48 01 c6             	add    %rax,%rsi
  400f8e:	48 d1 fe             	sar    %rsi
  400f91:	74 15                	je     400fa8 <register_tm_clones+0x38>
  400f93:	b8 00 00 00 00       	mov    $0x0,%eax
  400f98:	48 85 c0             	test   %rax,%rax
  400f9b:	74 0b                	je     400fa8 <register_tm_clones+0x38>
  400f9d:	5d                   	pop    %rbp
  400f9e:	bf 90 44 60 00       	mov    $0x604490,%edi
  400fa3:	ff e0                	jmpq   *%rax
  400fa5:	0f 1f 00             	nopl   (%rax)
  400fa8:	5d                   	pop    %rbp
  400fa9:	c3                   	retq   
  400faa:	66 0f 1f 44 00 00    	nopw   0x0(%rax,%rax,1)

0000000000400fb0 <__do_global_dtors_aux>:
  400fb0:	80 3d 11 35 20 00 00 	cmpb   $0x0,0x203511(%rip)        # 6044c8 <completed.6998>
  400fb7:	75 17                	jne    400fd0 <__do_global_dtors_aux+0x20>
  400fb9:	55                   	push   %rbp
  400fba:	48 89 e5             	mov    %rsp,%rbp
  400fbd:	e8 7e ff ff ff       	callq  400f40 <deregister_tm_clones>
  400fc2:	c6 05 ff 34 20 00 01 	movb   $0x1,0x2034ff(%rip)        # 6044c8 <completed.6998>
  400fc9:	5d                   	pop    %rbp
  400fca:	c3                   	retq   
  400fcb:	0f 1f 44 00 00       	nopl   0x0(%rax,%rax,1)
  400fd0:	f3 c3                	repz retq 
  400fd2:	66 66 2e 0f 1f 84 00 	data16 nopw %cs:0x0(%rax,%rax,1)
  400fd9:	00 00 00 00 
  400fdd:	0f 1f 00             	nopl   (%rax)

0000000000400fe0 <frame_dummy>:
  400fe0:	55                   	push   %rbp
  400fe1:	48 89 e5             	mov    %rsp,%rbp
  400fe4:	5d                   	pop    %rbp
  400fe5:	eb 89                	jmp    400f70 <register_tm_clones>

0000000000400fe7 <usage>:
  400fe7:	48 83 ec 08          	sub    $0x8,%rsp
  400feb:	48 89 fe             	mov    %rdi,%rsi
  400fee:	83 3d 13 35 20 00 00 	cmpl   $0x0,0x203513(%rip)        # 604508 <is_checker>
  400ff5:	74 41                	je     401038 <usage+0x51>
  400ff7:	bf a8 2c 40 00       	mov    $0x402ca8,%edi
  400ffc:	b8 00 00 00 00       	mov    $0x0,%eax
  401001:	e8 8a fd ff ff       	callq  400d90 <printf@plt>
  401006:	bf e0 2c 40 00       	mov    $0x402ce0,%edi
  40100b:	e8 50 fd ff ff       	callq  400d60 <puts@plt>
  401010:	bf 58 2e 40 00       	mov    $0x402e58,%edi
  401015:	e8 46 fd ff ff       	callq  400d60 <puts@plt>
  40101a:	bf 08 2d 40 00       	mov    $0x402d08,%edi
  40101f:	e8 3c fd ff ff       	callq  400d60 <puts@plt>
  401024:	bf 72 2e 40 00       	mov    $0x402e72,%edi
  401029:	e8 32 fd ff ff       	callq  400d60 <puts@plt>
  40102e:	bf 00 00 00 00       	mov    $0x0,%edi
  401033:	e8 a8 fe ff ff       	callq  400ee0 <exit@plt>
  401038:	bf 8e 2e 40 00       	mov    $0x402e8e,%edi
  40103d:	b8 00 00 00 00       	mov    $0x0,%eax
  401042:	e8 49 fd ff ff       	callq  400d90 <printf@plt>
  401047:	bf 30 2d 40 00       	mov    $0x402d30,%edi
  40104c:	e8 0f fd ff ff       	callq  400d60 <puts@plt>
  401051:	bf 58 2d 40 00       	mov    $0x402d58,%edi
  401056:	e8 05 fd ff ff       	callq  400d60 <puts@plt>
  40105b:	bf ac 2e 40 00       	mov    $0x402eac,%edi
  401060:	e8 fb fc ff ff       	callq  400d60 <puts@plt>
  401065:	eb c7                	jmp    40102e <usage+0x47>

0000000000401067 <initialize_target>:
  401067:	55                   	push   %rbp
  401068:	53                   	push   %rbx
  401069:	48 81 ec 08 21 00 00 	sub    $0x2108,%rsp
  401070:	89 f5                	mov    %esi,%ebp
  401072:	89 3d 80 34 20 00    	mov    %edi,0x203480(%rip)        # 6044f8 <check_level>
  401078:	8b 3d ca 30 20 00    	mov    0x2030ca(%rip),%edi        # 604148 <target_id>
  40107e:	e8 76 1b 00 00       	callq  402bf9 <gencookie>
  401083:	89 05 7b 34 20 00    	mov    %eax,0x20347b(%rip)        # 604504 <cookie>
  401089:	89 c7                	mov    %eax,%edi
  40108b:	e8 69 1b 00 00       	callq  402bf9 <gencookie>
  401090:	89 05 6a 34 20 00    	mov    %eax,0x20346a(%rip)        # 604500 <authkey>
  401096:	8b 05 ac 30 20 00    	mov    0x2030ac(%rip),%eax        # 604148 <target_id>
  40109c:	8d 78 01             	lea    0x1(%rax),%edi
  40109f:	e8 8c fc ff ff       	callq  400d30 <srandom@plt>
  4010a4:	e8 97 fd ff ff       	callq  400e40 <random@plt>
  4010a9:	89 c7                	mov    %eax,%edi
  4010ab:	e8 b8 02 00 00       	callq  401368 <scramble>
  4010b0:	89 c3                	mov    %eax,%ebx
  4010b2:	85 ed                	test   %ebp,%ebp
  4010b4:	75 3d                	jne    4010f3 <initialize_target+0x8c>
  4010b6:	b8 00 00 00 00       	mov    $0x0,%eax
  4010bb:	01 d8                	add    %ebx,%eax
  4010bd:	0f b7 c0             	movzwl %ax,%eax
  4010c0:	8d 04 c5 00 01 00 00 	lea    0x100(,%rax,8),%eax
  4010c7:	89 c0                	mov    %eax,%eax
  4010c9:	48 89 05 b0 33 20 00 	mov    %rax,0x2033b0(%rip)        # 604480 <buf_offset>
  4010d0:	c6 05 51 40 20 00 63 	movb   $0x63,0x204051(%rip)        # 605128 <target_prefix>
  4010d7:	83 3d aa 33 20 00 00 	cmpl   $0x0,0x2033aa(%rip)        # 604488 <notify>
  4010de:	74 09                	je     4010e9 <initialize_target+0x82>
  4010e0:	83 3d 21 34 20 00 00 	cmpl   $0x0,0x203421(%rip)        # 604508 <is_checker>
  4010e7:	74 22                	je     40110b <initialize_target+0xa4>
  4010e9:	48 81 c4 08 21 00 00 	add    $0x2108,%rsp
  4010f0:	5b                   	pop    %rbx
  4010f1:	5d                   	pop    %rbp
  4010f2:	c3                   	retq   
  4010f3:	bf 00 00 00 00       	mov    $0x0,%edi
  4010f8:	e8 33 fd ff ff       	callq  400e30 <time@plt>
  4010fd:	89 c7                	mov    %eax,%edi
  4010ff:	e8 2c fc ff ff       	callq  400d30 <srandom@plt>
  401104:	e8 37 fd ff ff       	callq  400e40 <random@plt>
  401109:	eb b0                	jmp    4010bb <initialize_target+0x54>
  40110b:	be 00 01 00 00       	mov    $0x100,%esi
  401110:	48 89 e7             	mov    %rsp,%rdi
  401113:	e8 a8 fd ff ff       	callq  400ec0 <gethostname@plt>
  401118:	89 c5                	mov    %eax,%ebp
  40111a:	85 c0                	test   %eax,%eax
  40111c:	75 23                	jne    401141 <initialize_target+0xda>
  40111e:	89 c3                	mov    %eax,%ebx
  401120:	48 63 c3             	movslq %ebx,%rax
  401123:	48 8b 3c c5 60 41 60 	mov    0x604160(,%rax,8),%rdi
  40112a:	00 
  40112b:	48 85 ff             	test   %rdi,%rdi
  40112e:	74 2a                	je     40115a <initialize_target+0xf3>
  401130:	48 89 e6             	mov    %rsp,%rsi
  401133:	e8 d8 fb ff ff       	callq  400d10 <strcasecmp@plt>
  401138:	85 c0                	test   %eax,%eax
  40113a:	74 19                	je     401155 <initialize_target+0xee>
  40113c:	83 c3 01             	add    $0x1,%ebx
  40113f:	eb df                	jmp    401120 <initialize_target+0xb9>
  401141:	bf 88 2d 40 00       	mov    $0x402d88,%edi
  401146:	e8 15 fc ff ff       	callq  400d60 <puts@plt>
  40114b:	bf 08 00 00 00       	mov    $0x8,%edi
  401150:	e8 8b fd ff ff       	callq  400ee0 <exit@plt>
  401155:	bd 01 00 00 00       	mov    $0x1,%ebp
  40115a:	85 ed                	test   %ebp,%ebp
  40115c:	74 36                	je     401194 <initialize_target+0x12d>
  40115e:	48 8d bc 24 00 01 00 	lea    0x100(%rsp),%rdi
  401165:	00 
  401166:	e8 21 18 00 00       	callq  40298c <init_driver>
  40116b:	85 c0                	test   %eax,%eax
  40116d:	0f 89 76 ff ff ff    	jns    4010e9 <initialize_target+0x82>
  401173:	48 8d b4 24 00 01 00 	lea    0x100(%rsp),%rsi
  40117a:	00 
  40117b:	bf 00 2e 40 00       	mov    $0x402e00,%edi
  401180:	b8 00 00 00 00       	mov    $0x0,%eax
  401185:	e8 06 fc ff ff       	callq  400d90 <printf@plt>
  40118a:	bf 08 00 00 00       	mov    $0x8,%edi
  40118f:	e8 4c fd ff ff       	callq  400ee0 <exit@plt>
  401194:	48 89 e6             	mov    %rsp,%rsi
  401197:	bf c0 2d 40 00       	mov    $0x402dc0,%edi
  40119c:	b8 00 00 00 00       	mov    $0x0,%eax
  4011a1:	e8 ea fb ff ff       	callq  400d90 <printf@plt>
  4011a6:	bf 08 00 00 00       	mov    $0x8,%edi
  4011ab:	e8 30 fd ff ff       	callq  400ee0 <exit@plt>

00000000004011b0 <main>:
  4011b0:	41 56                	push   %r14
  4011b2:	41 55                	push   %r13
  4011b4:	41 54                	push   %r12
  4011b6:	55                   	push   %rbp
  4011b7:	53                   	push   %rbx
  4011b8:	41 89 fc             	mov    %edi,%r12d
  4011bb:	48 89 f3             	mov    %rsi,%rbx
  4011be:	be 94 1d 40 00       	mov    $0x401d94,%esi
  4011c3:	bf 0b 00 00 00       	mov    $0xb,%edi
  4011c8:	e8 13 fc ff ff       	callq  400de0 <signal@plt>
  4011cd:	be 46 1d 40 00       	mov    $0x401d46,%esi
  4011d2:	bf 07 00 00 00       	mov    $0x7,%edi
  4011d7:	e8 04 fc ff ff       	callq  400de0 <signal@plt>
  4011dc:	be e2 1d 40 00       	mov    $0x401de2,%esi
  4011e1:	bf 04 00 00 00       	mov    $0x4,%edi
  4011e6:	e8 f5 fb ff ff       	callq  400de0 <signal@plt>
  4011eb:	83 3d 16 33 20 00 00 	cmpl   $0x0,0x203316(%rip)        # 604508 <is_checker>
  4011f2:	75 24                	jne    401218 <main+0x68>
  4011f4:	bd c5 2e 40 00       	mov    $0x402ec5,%ebp
  4011f9:	48 8b 05 a0 32 20 00 	mov    0x2032a0(%rip),%rax        # 6044a0 <stdin@@GLIBC_2.2.5>
  401200:	48 89 05 e9 32 20 00 	mov    %rax,0x2032e9(%rip)        # 6044f0 <infile>
  401207:	41 bd 00 00 00 00    	mov    $0x0,%r13d
  40120d:	41 be 00 00 00 00    	mov    $0x0,%r14d
  401213:	e9 80 00 00 00       	jmpq   401298 <main+0xe8>
  401218:	be 30 1e 40 00       	mov    $0x401e30,%esi
  40121d:	bf 0e 00 00 00       	mov    $0xe,%edi
  401222:	e8 b9 fb ff ff       	callq  400de0 <signal@plt>
  401227:	bf 05 00 00 00       	mov    $0x5,%edi
  40122c:	e8 7f fb ff ff       	callq  400db0 <alarm@plt>
  401231:	bd ca 2e 40 00       	mov    $0x402eca,%ebp
  401236:	eb c1                	jmp    4011f9 <main+0x49>
  401238:	48 8b 3b             	mov    (%rbx),%rdi
  40123b:	e8 a7 fd ff ff       	callq  400fe7 <usage>
  401240:	be 65 31 40 00       	mov    $0x403165,%esi
  401245:	48 8b 3d 64 32 20 00 	mov    0x203264(%rip),%rdi        # 6044b0 <optarg@@GLIBC_2.2.5>
  40124c:	e8 3f fc ff ff       	callq  400e90 <fopen@plt>
  401251:	48 89 05 98 32 20 00 	mov    %rax,0x203298(%rip)        # 6044f0 <infile>
  401258:	48 85 c0             	test   %rax,%rax
  40125b:	75 3b                	jne    401298 <main+0xe8>
  40125d:	48 8b 15 4c 32 20 00 	mov    0x20324c(%rip),%rdx        # 6044b0 <optarg@@GLIBC_2.2.5>
  401264:	be d2 2e 40 00       	mov    $0x402ed2,%esi
  401269:	48 8b 3d 50 32 20 00 	mov    0x203250(%rip),%rdi        # 6044c0 <stderr@@GLIBC_2.2.5>
  401270:	e8 8b fb ff ff       	callq  400e00 <fprintf@plt>
  401275:	b8 01 00 00 00       	mov    $0x1,%eax
  40127a:	e9 c2 00 00 00       	jmpq   401341 <main+0x191>
  40127f:	ba 10 00 00 00       	mov    $0x10,%edx
  401284:	be 00 00 00 00       	mov    $0x0,%esi
  401289:	48 8b 3d 20 32 20 00 	mov    0x203220(%rip),%rdi        # 6044b0 <optarg@@GLIBC_2.2.5>
  401290:	e8 1b fc ff ff       	callq  400eb0 <strtoul@plt>
  401295:	41 89 c6             	mov    %eax,%r14d
  401298:	48 89 ea             	mov    %rbp,%rdx
  40129b:	48 89 de             	mov    %rbx,%rsi
  40129e:	44 89 e7             	mov    %r12d,%edi
  4012a1:	e8 fa fb ff ff       	callq  400ea0 <getopt@plt>
  4012a6:	3c ff                	cmp    $0xff,%al
  4012a8:	74 52                	je     4012fc <main+0x14c>
  4012aa:	0f be f0             	movsbl %al,%esi
  4012ad:	83 e8 61             	sub    $0x61,%eax
  4012b0:	3c 10                	cmp    $0x10,%al
  4012b2:	77 31                	ja     4012e5 <main+0x135>
  4012b4:	0f b6 c0             	movzbl %al,%eax
  4012b7:	ff 24 c5 10 2f 40 00 	jmpq   *0x402f10(,%rax,8)
  4012be:	ba 0a 00 00 00       	mov    $0xa,%edx
  4012c3:	be 00 00 00 00       	mov    $0x0,%esi
  4012c8:	48 8b 3d e1 31 20 00 	mov    0x2031e1(%rip),%rdi        # 6044b0 <optarg@@GLIBC_2.2.5>
  4012cf:	e8 3c fb ff ff       	callq  400e10 <strtol@plt>
  4012d4:	41 89 c5             	mov    %eax,%r13d
  4012d7:	eb bf                	jmp    401298 <main+0xe8>
  4012d9:	c7 05 a5 31 20 00 00 	movl   $0x0,0x2031a5(%rip)        # 604488 <notify>
  4012e0:	00 00 00 
  4012e3:	eb b3                	jmp    401298 <main+0xe8>
  4012e5:	bf ef 2e 40 00       	mov    $0x402eef,%edi
  4012ea:	b8 00 00 00 00       	mov    $0x0,%eax
  4012ef:	e8 9c fa ff ff       	callq  400d90 <printf@plt>
  4012f4:	48 8b 3b             	mov    (%rbx),%rdi
  4012f7:	e8 eb fc ff ff       	callq  400fe7 <usage>
  4012fc:	be 00 00 00 00       	mov    $0x0,%esi
  401301:	44 89 ef             	mov    %r13d,%edi
  401304:	e8 5e fd ff ff       	callq  401067 <initialize_target>
  401309:	83 3d f8 31 20 00 00 	cmpl   $0x0,0x2031f8(%rip)        # 604508 <is_checker>
  401310:	74 09                	je     40131b <main+0x16b>
  401312:	44 39 35 e7 31 20 00 	cmp    %r14d,0x2031e7(%rip)        # 604500 <authkey>
  401319:	75 2f                	jne    40134a <main+0x19a>
  40131b:	8b 35 e3 31 20 00    	mov    0x2031e3(%rip),%esi        # 604504 <cookie>
  401321:	bf 02 2f 40 00       	mov    $0x402f02,%edi
  401326:	b8 00 00 00 00       	mov    $0x0,%eax
  40132b:	e8 60 fa ff ff       	callq  400d90 <printf@plt>
  401330:	48 8b 3d 49 31 20 00 	mov    0x203149(%rip),%rdi        # 604480 <buf_offset>
  401337:	e8 c5 0b 00 00       	callq  401f01 <stable_launch>
  40133c:	b8 00 00 00 00       	mov    $0x0,%eax
  401341:	5b                   	pop    %rbx
  401342:	5d                   	pop    %rbp
  401343:	41 5c                	pop    %r12
  401345:	41 5d                	pop    %r13
  401347:	41 5e                	pop    %r14
  401349:	c3                   	retq   
  40134a:	44 89 f6             	mov    %r14d,%esi
  40134d:	bf 28 2e 40 00       	mov    $0x402e28,%edi
  401352:	b8 00 00 00 00       	mov    $0x0,%eax
  401357:	e8 34 fa ff ff       	callq  400d90 <printf@plt>
  40135c:	b8 00 00 00 00       	mov    $0x0,%eax
  401361:	e8 dc 06 00 00       	callq  401a42 <check_fail>
  401366:	eb b3                	jmp    40131b <main+0x16b>

0000000000401368 <scramble>:
  401368:	b8 00 00 00 00       	mov    $0x0,%eax
  40136d:	eb 11                	jmp    401380 <scramble+0x18>
  40136f:	69 d0 bb 40 00 00    	imul   $0x40bb,%eax,%edx
  401375:	01 fa                	add    %edi,%edx
  401377:	89 c1                	mov    %eax,%ecx
  401379:	89 54 8c d0          	mov    %edx,-0x30(%rsp,%rcx,4)
  40137d:	83 c0 01             	add    $0x1,%eax
  401380:	83 f8 09             	cmp    $0x9,%eax
  401383:	76 ea                	jbe    40136f <scramble+0x7>
  401385:	8b 44 24 d4          	mov    -0x2c(%rsp),%eax
  401389:	69 c0 fe ea 00 00    	imul   $0xeafe,%eax,%eax
  40138f:	89 44 24 d4          	mov    %eax,-0x2c(%rsp)
  401393:	8b 44 24 e0          	mov    -0x20(%rsp),%eax
  401397:	69 c0 1c 10 00 00    	imul   $0x101c,%eax,%eax
  40139d:	89 44 24 e0          	mov    %eax,-0x20(%rsp)
  4013a1:	8b 44 24 d8          	mov    -0x28(%rsp),%eax
  4013a5:	69 c0 2a 36 00 00    	imul   $0x362a,%eax,%eax
  4013ab:	89 44 24 d8          	mov    %eax,-0x28(%rsp)
  4013af:	8b 44 24 f4          	mov    -0xc(%rsp),%eax
  4013b3:	69 c0 32 a3 00 00    	imul   $0xa332,%eax,%eax
  4013b9:	89 44 24 f4          	mov    %eax,-0xc(%rsp)
  4013bd:	8b 44 24 f4          	mov    -0xc(%rsp),%eax
  4013c1:	69 c0 d2 35 00 00    	imul   $0x35d2,%eax,%eax
  4013c7:	89 44 24 f4          	mov    %eax,-0xc(%rsp)
  4013cb:	8b 44 24 e0          	mov    -0x20(%rsp),%eax
  4013cf:	69 c0 02 4e 00 00    	imul   $0x4e02,%eax,%eax
  4013d5:	89 44 24 e0          	mov    %eax,-0x20(%rsp)
  4013d9:	8b 44 24 e4          	mov    -0x1c(%rsp),%eax
  4013dd:	69 c0 f6 4e 00 00    	imul   $0x4ef6,%eax,%eax
  4013e3:	89 44 24 e4          	mov    %eax,-0x1c(%rsp)
  4013e7:	8b 44 24 ec          	mov    -0x14(%rsp),%eax
  4013eb:	69 c0 d9 e0 00 00    	imul   $0xe0d9,%eax,%eax
  4013f1:	89 44 24 ec          	mov    %eax,-0x14(%rsp)
  4013f5:	8b 44 24 ec          	mov    -0x14(%rsp),%eax
  4013f9:	69 c0 99 ff 00 00    	imul   $0xff99,%eax,%eax
  4013ff:	89 44 24 ec          	mov    %eax,-0x14(%rsp)
  401403:	8b 44 24 ec          	mov    -0x14(%rsp),%eax
  401407:	69 c0 e7 92 00 00    	imul   $0x92e7,%eax,%eax
  40140d:	89 44 24 ec          	mov    %eax,-0x14(%rsp)
  401411:	8b 44 24 f4          	mov    -0xc(%rsp),%eax
  401415:	69 c0 85 40 00 00    	imul   $0x4085,%eax,%eax
  40141b:	89 44 24 f4          	mov    %eax,-0xc(%rsp)
  40141f:	8b 44 24 f4          	mov    -0xc(%rsp),%eax
  401423:	69 c0 99 ad 00 00    	imul   $0xad99,%eax,%eax
  401429:	89 44 24 f4          	mov    %eax,-0xc(%rsp)
  40142d:	8b 44 24 f4          	mov    -0xc(%rsp),%eax
  401431:	69 c0 87 4a 00 00    	imul   $0x4a87,%eax,%eax
  401437:	89 44 24 f4          	mov    %eax,-0xc(%rsp)
  40143b:	8b 44 24 e0          	mov    -0x20(%rsp),%eax
  40143f:	69 c0 4d 7e 00 00    	imul   $0x7e4d,%eax,%eax
  401445:	89 44 24 e0          	mov    %eax,-0x20(%rsp)
  401449:	8b 44 24 e8          	mov    -0x18(%rsp),%eax
  40144d:	69 c0 28 fc 00 00    	imul   $0xfc28,%eax,%eax
  401453:	89 44 24 e8          	mov    %eax,-0x18(%rsp)
  401457:	8b 44 24 f4          	mov    -0xc(%rsp),%eax
  40145b:	69 c0 f3 89 00 00    	imul   $0x89f3,%eax,%eax
  401461:	89 44 24 f4          	mov    %eax,-0xc(%rsp)
  401465:	8b 44 24 d4          	mov    -0x2c(%rsp),%eax
  401469:	69 c0 0b 44 00 00    	imul   $0x440b,%eax,%eax
  40146f:	89 44 24 d4          	mov    %eax,-0x2c(%rsp)
  401473:	8b 44 24 e4          	mov    -0x1c(%rsp),%eax
  401477:	69 c0 11 b3 00 00    	imul   $0xb311,%eax,%eax
  40147d:	89 44 24 e4          	mov    %eax,-0x1c(%rsp)
  401481:	8b 44 24 ec          	mov    -0x14(%rsp),%eax
  401485:	69 c0 d7 88 00 00    	imul   $0x88d7,%eax,%eax
  40148b:	89 44 24 ec          	mov    %eax,-0x14(%rsp)
  40148f:	8b 44 24 e0          	mov    -0x20(%rsp),%eax
  401493:	69 c0 e0 eb 00 00    	imul   $0xebe0,%eax,%eax
  401499:	89 44 24 e0          	mov    %eax,-0x20(%rsp)
  40149d:	8b 44 24 e8          	mov    -0x18(%rsp),%eax
  4014a1:	69 c0 6a c0 00 00    	imul   $0xc06a,%eax,%eax
  4014a7:	89 44 24 e8          	mov    %eax,-0x18(%rsp)
  4014ab:	8b 44 24 e8          	mov    -0x18(%rsp),%eax
  4014af:	69 c0 c4 41 00 00    	imul   $0x41c4,%eax,%eax
  4014b5:	89 44 24 e8          	mov    %eax,-0x18(%rsp)
  4014b9:	8b 44 24 dc          	mov    -0x24(%rsp),%eax
  4014bd:	69 c0 bc cb 00 00    	imul   $0xcbbc,%eax,%eax
  4014c3:	89 44 24 dc          	mov    %eax,-0x24(%rsp)
  4014c7:	8b 44 24 dc          	mov    -0x24(%rsp),%eax
  4014cb:	69 c0 17 fb 00 00    	imul   $0xfb17,%eax,%eax
  4014d1:	89 44 24 dc          	mov    %eax,-0x24(%rsp)
  4014d5:	8b 44 24 e4          	mov    -0x1c(%rsp),%eax
  4014d9:	69 c0 38 59 00 00    	imul   $0x5938,%eax,%eax
  4014df:	89 44 24 e4          	mov    %eax,-0x1c(%rsp)
  4014e3:	8b 44 24 ec          	mov    -0x14(%rsp),%eax
  4014e7:	69 c0 e7 62 00 00    	imul   $0x62e7,%eax,%eax
  4014ed:	89 44 24 ec          	mov    %eax,-0x14(%rsp)
  4014f1:	8b 44 24 d8          	mov    -0x28(%rsp),%eax
  4014f5:	69 c0 88 19 00 00    	imul   $0x1988,%eax,%eax
  4014fb:	89 44 24 d8          	mov    %eax,-0x28(%rsp)
  4014ff:	8b 44 24 f4          	mov    -0xc(%rsp),%eax
  401503:	69 c0 e8 8b 00 00    	imul   $0x8be8,%eax,%eax
  401509:	89 44 24 f4          	mov    %eax,-0xc(%rsp)
  40150d:	8b 44 24 d4          	mov    -0x2c(%rsp),%eax
  401511:	69 c0 a2 06 00 00    	imul   $0x6a2,%eax,%eax
  401517:	89 44 24 d4          	mov    %eax,-0x2c(%rsp)
  40151b:	8b 44 24 d0          	mov    -0x30(%rsp),%eax
  40151f:	69 c0 47 ad 00 00    	imul   $0xad47,%eax,%eax
  401525:	89 44 24 d0          	mov    %eax,-0x30(%rsp)
  401529:	8b 44 24 d8          	mov    -0x28(%rsp),%eax
  40152d:	69 c0 28 18 00 00    	imul   $0x1828,%eax,%eax
  401533:	89 44 24 d8          	mov    %eax,-0x28(%rsp)
  401537:	8b 44 24 d4          	mov    -0x2c(%rsp),%eax
  40153b:	69 c0 f1 e9 00 00    	imul   $0xe9f1,%eax,%eax
  401541:	89 44 24 d4          	mov    %eax,-0x2c(%rsp)
  401545:	8b 44 24 e0          	mov    -0x20(%rsp),%eax
  401549:	69 c0 4a d1 00 00    	imul   $0xd14a,%eax,%eax
  40154f:	89 44 24 e0          	mov    %eax,-0x20(%rsp)
  401553:	8b 44 24 f4          	mov    -0xc(%rsp),%eax
  401557:	69 c0 69 d6 00 00    	imul   $0xd669,%eax,%eax
  40155d:	89 44 24 f4          	mov    %eax,-0xc(%rsp)
  401561:	8b 44 24 dc          	mov    -0x24(%rsp),%eax
  401565:	69 c0 46 f3 00 00    	imul   $0xf346,%eax,%eax
  40156b:	89 44 24 dc          	mov    %eax,-0x24(%rsp)
  40156f:	8b 44 24 d8          	mov    -0x28(%rsp),%eax
  401573:	69 c0 cb 18 00 00    	imul   $0x18cb,%eax,%eax
  401579:	89 44 24 d8          	mov    %eax,-0x28(%rsp)
  40157d:	8b 44 24 e4          	mov    -0x1c(%rsp),%eax
  401581:	69 c0 2c fc 00 00    	imul   $0xfc2c,%eax,%eax
  401587:	89 44 24 e4          	mov    %eax,-0x1c(%rsp)
  40158b:	8b 44 24 e8          	mov    -0x18(%rsp),%eax
  40158f:	69 c0 11 c3 00 00    	imul   $0xc311,%eax,%eax
  401595:	89 44 24 e8          	mov    %eax,-0x18(%rsp)
  401599:	8b 44 24 e0          	mov    -0x20(%rsp),%eax
  40159d:	69 c0 2c 7d 00 00    	imul   $0x7d2c,%eax,%eax
  4015a3:	89 44 24 e0          	mov    %eax,-0x20(%rsp)
  4015a7:	8b 44 24 d4          	mov    -0x2c(%rsp),%eax
  4015ab:	69 c0 3d 93 00 00    	imul   $0x933d,%eax,%eax
  4015b1:	89 44 24 d4          	mov    %eax,-0x2c(%rsp)
  4015b5:	8b 44 24 d8          	mov    -0x28(%rsp),%eax
  4015b9:	69 c0 27 4c 00 00    	imul   $0x4c27,%eax,%eax
  4015bf:	89 44 24 d8          	mov    %eax,-0x28(%rsp)
  4015c3:	8b 44 24 ec          	mov    -0x14(%rsp),%eax
  4015c7:	69 c0 22 70 00 00    	imul   $0x7022,%eax,%eax
  4015cd:	89 44 24 ec          	mov    %eax,-0x14(%rsp)
  4015d1:	8b 44 24 d4          	mov    -0x2c(%rsp),%eax
  4015d5:	69 c0 a5 06 00 00    	imul   $0x6a5,%eax,%eax
  4015db:	89 44 24 d4          	mov    %eax,-0x2c(%rsp)
  4015df:	8b 44 24 ec          	mov    -0x14(%rsp),%eax
  4015e3:	69 c0 be c9 00 00    	imul   $0xc9be,%eax,%eax
  4015e9:	89 44 24 ec          	mov    %eax,-0x14(%rsp)
  4015ed:	8b 44 24 dc          	mov    -0x24(%rsp),%eax
  4015f1:	69 c0 40 06 00 00    	imul   $0x640,%eax,%eax
  4015f7:	89 44 24 dc          	mov    %eax,-0x24(%rsp)
  4015fb:	8b 44 24 e0          	mov    -0x20(%rsp),%eax
  4015ff:	69 c0 11 10 00 00    	imul   $0x1011,%eax,%eax
  401605:	89 44 24 e0          	mov    %eax,-0x20(%rsp)
  401609:	8b 44 24 f4          	mov    -0xc(%rsp),%eax
  40160d:	69 c0 40 ae 00 00    	imul   $0xae40,%eax,%eax
  401613:	89 44 24 f4          	mov    %eax,-0xc(%rsp)
  401617:	8b 44 24 d8          	mov    -0x28(%rsp),%eax
  40161b:	69 c0 9c 7a 00 00    	imul   $0x7a9c,%eax,%eax
  401621:	89 44 24 d8          	mov    %eax,-0x28(%rsp)
  401625:	8b 44 24 e4          	mov    -0x1c(%rsp),%eax
  401629:	69 c0 05 97 00 00    	imul   $0x9705,%eax,%eax
  40162f:	89 44 24 e4          	mov    %eax,-0x1c(%rsp)
  401633:	8b 44 24 f4          	mov    -0xc(%rsp),%eax
  401637:	69 c0 ab d9 00 00    	imul   $0xd9ab,%eax,%eax
  40163d:	89 44 24 f4          	mov    %eax,-0xc(%rsp)
  401641:	8b 44 24 ec          	mov    -0x14(%rsp),%eax
  401645:	69 c0 4e 13 00 00    	imul   $0x134e,%eax,%eax
  40164b:	89 44 24 ec          	mov    %eax,-0x14(%rsp)
  40164f:	8b 44 24 d8          	mov    -0x28(%rsp),%eax
  401653:	69 c0 fc 3d 00 00    	imul   $0x3dfc,%eax,%eax
  401659:	89 44 24 d8          	mov    %eax,-0x28(%rsp)
  40165d:	8b 44 24 e4          	mov    -0x1c(%rsp),%eax
  401661:	69 c0 06 4d 00 00    	imul   $0x4d06,%eax,%eax
  401667:	89 44 24 e4          	mov    %eax,-0x1c(%rsp)
  40166b:	8b 44 24 e4          	mov    -0x1c(%rsp),%eax
  40166f:	69 c0 62 d7 00 00    	imul   $0xd762,%eax,%eax
  401675:	89 44 24 e4          	mov    %eax,-0x1c(%rsp)
  401679:	8b 44 24 f0          	mov    -0x10(%rsp),%eax
  40167d:	69 c0 35 bf 00 00    	imul   $0xbf35,%eax,%eax
  401683:	89 44 24 f0          	mov    %eax,-0x10(%rsp)
  401687:	8b 44 24 dc          	mov    -0x24(%rsp),%eax
  40168b:	69 c0 98 a0 00 00    	imul   $0xa098,%eax,%eax
  401691:	89 44 24 dc          	mov    %eax,-0x24(%rsp)
  401695:	8b 44 24 d0          	mov    -0x30(%rsp),%eax
  401699:	69 c0 c4 60 00 00    	imul   $0x60c4,%eax,%eax
  40169f:	89 44 24 d0          	mov    %eax,-0x30(%rsp)
  4016a3:	8b 44 24 e4          	mov    -0x1c(%rsp),%eax
  4016a7:	69 c0 0c 71 00 00    	imul   $0x710c,%eax,%eax
  4016ad:	89 44 24 e4          	mov    %eax,-0x1c(%rsp)
  4016b1:	8b 44 24 f4          	mov    -0xc(%rsp),%eax
  4016b5:	69 c0 c5 0c 00 00    	imul   $0xcc5,%eax,%eax
  4016bb:	89 44 24 f4          	mov    %eax,-0xc(%rsp)
  4016bf:	8b 44 24 e8          	mov    -0x18(%rsp),%eax
  4016c3:	69 c0 b0 74 00 00    	imul   $0x74b0,%eax,%eax
  4016c9:	89 44 24 e8          	mov    %eax,-0x18(%rsp)
  4016cd:	8b 44 24 e0          	mov    -0x20(%rsp),%eax
  4016d1:	69 c0 d0 b1 00 00    	imul   $0xb1d0,%eax,%eax
  4016d7:	89 44 24 e0          	mov    %eax,-0x20(%rsp)
  4016db:	8b 44 24 d0          	mov    -0x30(%rsp),%eax
  4016df:	69 c0 6e 31 00 00    	imul   $0x316e,%eax,%eax
  4016e5:	89 44 24 d0          	mov    %eax,-0x30(%rsp)
  4016e9:	8b 44 24 d0          	mov    -0x30(%rsp),%eax
  4016ed:	69 c0 c5 7e 00 00    	imul   $0x7ec5,%eax,%eax
  4016f3:	89 44 24 d0          	mov    %eax,-0x30(%rsp)
  4016f7:	8b 44 24 d0          	mov    -0x30(%rsp),%eax
  4016fb:	69 c0 9a df 00 00    	imul   $0xdf9a,%eax,%eax
  401701:	89 44 24 d0          	mov    %eax,-0x30(%rsp)
  401705:	8b 44 24 e8          	mov    -0x18(%rsp),%eax
  401709:	69 c0 0f fd 00 00    	imul   $0xfd0f,%eax,%eax
  40170f:	89 44 24 e8          	mov    %eax,-0x18(%rsp)
  401713:	8b 44 24 e8          	mov    -0x18(%rsp),%eax
  401717:	69 c0 16 a0 00 00    	imul   $0xa016,%eax,%eax
  40171d:	89 44 24 e8          	mov    %eax,-0x18(%rsp)
  401721:	8b 44 24 e0          	mov    -0x20(%rsp),%eax
  401725:	69 c0 bd ab 00 00    	imul   $0xabbd,%eax,%eax
  40172b:	89 44 24 e0          	mov    %eax,-0x20(%rsp)
  40172f:	8b 44 24 f4          	mov    -0xc(%rsp),%eax
  401733:	69 c0 d8 1f 00 00    	imul   $0x1fd8,%eax,%eax
  401739:	89 44 24 f4          	mov    %eax,-0xc(%rsp)
  40173d:	8b 44 24 f4          	mov    -0xc(%rsp),%eax
  401741:	69 c0 1f df 00 00    	imul   $0xdf1f,%eax,%eax
  401747:	89 44 24 f4          	mov    %eax,-0xc(%rsp)
  40174b:	8b 44 24 d8          	mov    -0x28(%rsp),%eax
  40174f:	69 c0 f6 c2 00 00    	imul   $0xc2f6,%eax,%eax
  401755:	89 44 24 d8          	mov    %eax,-0x28(%rsp)
  401759:	8b 44 24 e0          	mov    -0x20(%rsp),%eax
  40175d:	69 c0 db 61 00 00    	imul   $0x61db,%eax,%eax
  401763:	89 44 24 e0          	mov    %eax,-0x20(%rsp)
  401767:	8b 44 24 f4          	mov    -0xc(%rsp),%eax
  40176b:	69 c0 b1 a9 00 00    	imul   $0xa9b1,%eax,%eax
  401771:	89 44 24 f4          	mov    %eax,-0xc(%rsp)
  401775:	8b 44 24 f0          	mov    -0x10(%rsp),%eax
  401779:	69 c0 49 74 00 00    	imul   $0x7449,%eax,%eax
  40177f:	89 44 24 f0          	mov    %eax,-0x10(%rsp)
  401783:	8b 44 24 e8          	mov    -0x18(%rsp),%eax
  401787:	69 c0 09 2a 00 00    	imul   $0x2a09,%eax,%eax
  40178d:	89 44 24 e8          	mov    %eax,-0x18(%rsp)
  401791:	8b 44 24 d4          	mov    -0x2c(%rsp),%eax
  401795:	69 c0 89 55 00 00    	imul   $0x5589,%eax,%eax
  40179b:	89 44 24 d4          	mov    %eax,-0x2c(%rsp)
  40179f:	8b 44 24 dc          	mov    -0x24(%rsp),%eax
  4017a3:	69 c0 14 94 00 00    	imul   $0x9414,%eax,%eax
  4017a9:	89 44 24 dc          	mov    %eax,-0x24(%rsp)
  4017ad:	8b 44 24 ec          	mov    -0x14(%rsp),%eax
  4017b1:	69 c0 7b 23 00 00    	imul   $0x237b,%eax,%eax
  4017b7:	89 44 24 ec          	mov    %eax,-0x14(%rsp)
  4017bb:	8b 44 24 d8          	mov    -0x28(%rsp),%eax
  4017bf:	69 c0 6a 67 00 00    	imul   $0x676a,%eax,%eax
  4017c5:	89 44 24 d8          	mov    %eax,-0x28(%rsp)
  4017c9:	8b 44 24 d0          	mov    -0x30(%rsp),%eax
  4017cd:	69 c0 8d 71 00 00    	imul   $0x718d,%eax,%eax
  4017d3:	89 44 24 d0          	mov    %eax,-0x30(%rsp)
  4017d7:	8b 44 24 e4          	mov    -0x1c(%rsp),%eax
  4017db:	69 c0 0b b8 00 00    	imul   $0xb80b,%eax,%eax
  4017e1:	89 44 24 e4          	mov    %eax,-0x1c(%rsp)
  4017e5:	8b 44 24 e4          	mov    -0x1c(%rsp),%eax
  4017e9:	6b c0 4a             	imul   $0x4a,%eax,%eax
  4017ec:	89 44 24 e4          	mov    %eax,-0x1c(%rsp)
  4017f0:	8b 44 24 dc          	mov    -0x24(%rsp),%eax
  4017f4:	69 c0 fb 7e 00 00    	imul   $0x7efb,%eax,%eax
  4017fa:	89 44 24 dc          	mov    %eax,-0x24(%rsp)
  4017fe:	8b 44 24 dc          	mov    -0x24(%rsp),%eax
  401802:	69 c0 33 36 00 00    	imul   $0x3633,%eax,%eax
  401808:	89 44 24 dc          	mov    %eax,-0x24(%rsp)
  40180c:	8b 44 24 d8          	mov    -0x28(%rsp),%eax
  401810:	69 c0 cb a4 00 00    	imul   $0xa4cb,%eax,%eax
  401816:	89 44 24 d8          	mov    %eax,-0x28(%rsp)
  40181a:	ba 00 00 00 00       	mov    $0x0,%edx
  40181f:	b8 00 00 00 00       	mov    $0x0,%eax
  401824:	eb 0b                	jmp    401831 <scramble+0x4c9>
  401826:	89 d1                	mov    %edx,%ecx
  401828:	8b 4c 8c d0          	mov    -0x30(%rsp,%rcx,4),%ecx
  40182c:	01 c8                	add    %ecx,%eax
  40182e:	83 c2 01             	add    $0x1,%edx
  401831:	83 fa 09             	cmp    $0x9,%edx
  401834:	76 f0                	jbe    401826 <scramble+0x4be>
  401836:	f3 c3                	repz retq 

0000000000401838 <getbuf>:
  401838:	48 83 ec 38          	sub    $0x38,%rsp
  40183c:	48 89 e7             	mov    %rsp,%rdi
  40183f:	e8 2d 02 00 00       	callq  401a71 <Gets>
  401844:	b8 01 00 00 00       	mov    $0x1,%eax
  401849:	48 83 c4 38          	add    $0x38,%rsp
  40184d:	c3                   	retq   

000000000040184e <touch1>:
  40184e:	48 83 ec 08          	sub    $0x8,%rsp
  401852:	c7 05 a0 2c 20 00 01 	movl   $0x1,0x202ca0(%rip)        # 6044fc <vlevel>
  401859:	00 00 00 
  40185c:	bf bb 2f 40 00       	mov    $0x402fbb,%edi
  401861:	e8 fa f4 ff ff       	callq  400d60 <puts@plt>
  401866:	bf 01 00 00 00       	mov    $0x1,%edi
  40186b:	e8 fc 03 00 00       	callq  401c6c <validate>
  401870:	bf 00 00 00 00       	mov    $0x0,%edi
  401875:	e8 66 f6 ff ff       	callq  400ee0 <exit@plt>

000000000040187a <touch2>:
  40187a:	48 83 ec 08          	sub    $0x8,%rsp
  40187e:	89 fe                	mov    %edi,%esi
  401880:	c7 05 72 2c 20 00 02 	movl   $0x2,0x202c72(%rip)        # 6044fc <vlevel>
  401887:	00 00 00 
  40188a:	39 3d 74 2c 20 00    	cmp    %edi,0x202c74(%rip)        # 604504 <cookie>
  401890:	74 23                	je     4018b5 <touch2+0x3b>
  401892:	bf 08 30 40 00       	mov    $0x403008,%edi
  401897:	b8 00 00 00 00       	mov    $0x0,%eax
  40189c:	e8 ef f4 ff ff       	callq  400d90 <printf@plt>
  4018a1:	bf 02 00 00 00       	mov    $0x2,%edi
  4018a6:	e8 73 04 00 00       	callq  401d1e <fail>
  4018ab:	bf 00 00 00 00       	mov    $0x0,%edi
  4018b0:	e8 2b f6 ff ff       	callq  400ee0 <exit@plt>
  4018b5:	bf e0 2f 40 00       	mov    $0x402fe0,%edi
  4018ba:	b8 00 00 00 00       	mov    $0x0,%eax
  4018bf:	e8 cc f4 ff ff       	callq  400d90 <printf@plt>
  4018c4:	bf 02 00 00 00       	mov    $0x2,%edi
  4018c9:	e8 9e 03 00 00       	callq  401c6c <validate>
  4018ce:	eb db                	jmp    4018ab <touch2+0x31>

00000000004018d0 <hexmatch>:
  4018d0:	41 54                	push   %r12
  4018d2:	55                   	push   %rbp
  4018d3:	53                   	push   %rbx
  4018d4:	48 83 ec 70          	sub    $0x70,%rsp
  4018d8:	89 fd                	mov    %edi,%ebp
  4018da:	48 89 f3             	mov    %rsi,%rbx
  4018dd:	e8 5e f5 ff ff       	callq  400e40 <random@plt>
  4018e2:	48 89 c1             	mov    %rax,%rcx
  4018e5:	48 ba 0b d7 a3 70 3d 	movabs $0xa3d70a3d70a3d70b,%rdx
  4018ec:	0a d7 a3 
  4018ef:	48 f7 ea             	imul   %rdx
  4018f2:	48 01 ca             	add    %rcx,%rdx
  4018f5:	48 c1 fa 06          	sar    $0x6,%rdx
  4018f9:	48 89 c8             	mov    %rcx,%rax
  4018fc:	48 c1 f8 3f          	sar    $0x3f,%rax
  401900:	48 29 c2             	sub    %rax,%rdx
  401903:	48 8d 04 92          	lea    (%rdx,%rdx,4),%rax
  401907:	48 8d 14 80          	lea    (%rax,%rax,4),%rdx
  40190b:	48 8d 04 95 00 00 00 	lea    0x0(,%rdx,4),%rax
  401912:	00 
  401913:	48 29 c1             	sub    %rax,%rcx
  401916:	4c 8d 24 0c          	lea    (%rsp,%rcx,1),%r12
  40191a:	89 ea                	mov    %ebp,%edx
  40191c:	be d8 2f 40 00       	mov    $0x402fd8,%esi
  401921:	4c 89 e7             	mov    %r12,%rdi
  401924:	b8 00 00 00 00       	mov    $0x0,%eax
  401929:	e8 a2 f5 ff ff       	callq  400ed0 <sprintf@plt>
  40192e:	ba 09 00 00 00       	mov    $0x9,%edx
  401933:	4c 89 e6             	mov    %r12,%rsi
  401936:	48 89 df             	mov    %rbx,%rdi
  401939:	e8 02 f4 ff ff       	callq  400d40 <strncmp@plt>
  40193e:	85 c0                	test   %eax,%eax
  401940:	0f 94 c0             	sete   %al
  401943:	0f b6 c0             	movzbl %al,%eax
  401946:	48 83 c4 70          	add    $0x70,%rsp
  40194a:	5b                   	pop    %rbx
  40194b:	5d                   	pop    %rbp
  40194c:	41 5c                	pop    %r12
  40194e:	c3                   	retq   

000000000040194f <touch3>:
  40194f:	53                   	push   %rbx
  401950:	48 89 fb             	mov    %rdi,%rbx
  401953:	c7 05 9f 2b 20 00 03 	movl   $0x3,0x202b9f(%rip)        # 6044fc <vlevel>
  40195a:	00 00 00 
  40195d:	48 89 fe             	mov    %rdi,%rsi
  401960:	8b 3d 9e 2b 20 00    	mov    0x202b9e(%rip),%edi        # 604504 <cookie>
  401966:	e8 65 ff ff ff       	callq  4018d0 <hexmatch>
  40196b:	85 c0                	test   %eax,%eax
  40196d:	74 26                	je     401995 <touch3+0x46>
  40196f:	48 89 de             	mov    %rbx,%rsi
  401972:	bf 30 30 40 00       	mov    $0x403030,%edi
  401977:	b8 00 00 00 00       	mov    $0x0,%eax
  40197c:	e8 0f f4 ff ff       	callq  400d90 <printf@plt>
  401981:	bf 03 00 00 00       	mov    $0x3,%edi
  401986:	e8 e1 02 00 00       	callq  401c6c <validate>
  40198b:	bf 00 00 00 00       	mov    $0x0,%edi
  401990:	e8 4b f5 ff ff       	callq  400ee0 <exit@plt>
  401995:	48 89 de             	mov    %rbx,%rsi
  401998:	bf 58 30 40 00       	mov    $0x403058,%edi
  40199d:	b8 00 00 00 00       	mov    $0x0,%eax
  4019a2:	e8 e9 f3 ff ff       	callq  400d90 <printf@plt>
  4019a7:	bf 03 00 00 00       	mov    $0x3,%edi
  4019ac:	e8 6d 03 00 00       	callq  401d1e <fail>
  4019b1:	eb d8                	jmp    40198b <touch3+0x3c>

00000000004019b3 <test>:
  4019b3:	48 83 ec 08          	sub    $0x8,%rsp
  4019b7:	b8 00 00 00 00       	mov    $0x0,%eax
  4019bc:	e8 77 fe ff ff       	callq  401838 <getbuf>
  4019c1:	89 c6                	mov    %eax,%esi
  4019c3:	bf 80 30 40 00       	mov    $0x403080,%edi
  4019c8:	b8 00 00 00 00       	mov    $0x0,%eax
  4019cd:	e8 be f3 ff ff       	callq  400d90 <printf@plt>
  4019d2:	48 83 c4 08          	add    $0x8,%rsp
  4019d6:	c3                   	retq   

00000000004019d7 <save_char>:
  4019d7:	8b 05 47 37 20 00    	mov    0x203747(%rip),%eax        # 605124 <gets_cnt>
  4019dd:	3d ff 03 00 00       	cmp    $0x3ff,%eax
  4019e2:	7f 49                	jg     401a2d <save_char+0x56>
  4019e4:	89 f9                	mov    %edi,%ecx
  4019e6:	c0 e9 04             	shr    $0x4,%cl
  4019e9:	8d 14 40             	lea    (%rax,%rax,2),%edx
  4019ec:	83 e1 0f             	and    $0xf,%ecx
  4019ef:	0f b6 b1 a0 33 40 00 	movzbl 0x4033a0(%rcx),%esi
  4019f6:	48 63 ca             	movslq %edx,%rcx
  4019f9:	40 88 b1 20 45 60 00 	mov    %sil,0x604520(%rcx)
  401a00:	8d 4a 01             	lea    0x1(%rdx),%ecx
  401a03:	83 e7 0f             	and    $0xf,%edi
  401a06:	0f b6 b7 a0 33 40 00 	movzbl 0x4033a0(%rdi),%esi
  401a0d:	48 63 c9             	movslq %ecx,%rcx
  401a10:	40 88 b1 20 45 60 00 	mov    %sil,0x604520(%rcx)
  401a17:	83 c2 02             	add    $0x2,%edx
  401a1a:	48 63 d2             	movslq %edx,%rdx
  401a1d:	c6 82 20 45 60 00 20 	movb   $0x20,0x604520(%rdx)
  401a24:	83 c0 01             	add    $0x1,%eax
  401a27:	89 05 f7 36 20 00    	mov    %eax,0x2036f7(%rip)        # 605124 <gets_cnt>
  401a2d:	f3 c3                	repz retq 

0000000000401a2f <save_term>:
  401a2f:	8b 05 ef 36 20 00    	mov    0x2036ef(%rip),%eax        # 605124 <gets_cnt>
  401a35:	8d 04 40             	lea    (%rax,%rax,2),%eax
  401a38:	48 98                	cltq   
  401a3a:	c6 80 20 45 60 00 00 	movb   $0x0,0x604520(%rax)
  401a41:	c3                   	retq   

0000000000401a42 <check_fail>:
  401a42:	48 83 ec 08          	sub    $0x8,%rsp
  401a46:	0f be 35 db 36 20 00 	movsbl 0x2036db(%rip),%esi        # 605128 <target_prefix>
  401a4d:	b9 20 45 60 00       	mov    $0x604520,%ecx
  401a52:	8b 15 a0 2a 20 00    	mov    0x202aa0(%rip),%edx        # 6044f8 <check_level>
  401a58:	bf a3 30 40 00       	mov    $0x4030a3,%edi
  401a5d:	b8 00 00 00 00       	mov    $0x0,%eax
  401a62:	e8 29 f3 ff ff       	callq  400d90 <printf@plt>
  401a67:	bf 01 00 00 00       	mov    $0x1,%edi
  401a6c:	e8 6f f4 ff ff       	callq  400ee0 <exit@plt>

0000000000401a71 <Gets>:
  401a71:	41 54                	push   %r12
  401a73:	55                   	push   %rbp
  401a74:	53                   	push   %rbx
  401a75:	49 89 fc             	mov    %rdi,%r12
  401a78:	c7 05 a2 36 20 00 00 	movl   $0x0,0x2036a2(%rip)        # 605124 <gets_cnt>
  401a7f:	00 00 00 
  401a82:	48 89 fb             	mov    %rdi,%rbx
  401a85:	eb 11                	jmp    401a98 <Gets+0x27>
  401a87:	48 8d 6b 01          	lea    0x1(%rbx),%rbp
  401a8b:	88 03                	mov    %al,(%rbx)
  401a8d:	0f b6 f8             	movzbl %al,%edi
  401a90:	e8 42 ff ff ff       	callq  4019d7 <save_char>
  401a95:	48 89 eb             	mov    %rbp,%rbx
  401a98:	48 8b 3d 51 2a 20 00 	mov    0x202a51(%rip),%rdi        # 6044f0 <infile>
  401a9f:	e8 ac f3 ff ff       	callq  400e50 <_IO_getc@plt>
  401aa4:	83 f8 ff             	cmp    $0xffffffff,%eax
  401aa7:	74 05                	je     401aae <Gets+0x3d>
  401aa9:	83 f8 0a             	cmp    $0xa,%eax
  401aac:	75 d9                	jne    401a87 <Gets+0x16>
  401aae:	c6 03 00             	movb   $0x0,(%rbx)
  401ab1:	b8 00 00 00 00       	mov    $0x0,%eax
  401ab6:	e8 74 ff ff ff       	callq  401a2f <save_term>
  401abb:	4c 89 e0             	mov    %r12,%rax
  401abe:	5b                   	pop    %rbx
  401abf:	5d                   	pop    %rbp
  401ac0:	41 5c                	pop    %r12
  401ac2:	c3                   	retq   

0000000000401ac3 <notify_server>:
  401ac3:	83 3d 3e 2a 20 00 00 	cmpl   $0x0,0x202a3e(%rip)        # 604508 <is_checker>
  401aca:	0f 85 9a 01 00 00    	jne    401c6a <notify_server+0x1a7>
  401ad0:	55                   	push   %rbp
  401ad1:	53                   	push   %rbx
  401ad2:	48 81 ec 08 40 00 00 	sub    $0x4008,%rsp
  401ad9:	89 fb                	mov    %edi,%ebx
  401adb:	8b 05 43 36 20 00    	mov    0x203643(%rip),%eax        # 605124 <gets_cnt>
  401ae1:	83 c0 64             	add    $0x64,%eax
  401ae4:	3d 00 20 00 00       	cmp    $0x2000,%eax
  401ae9:	0f 8f b5 00 00 00    	jg     401ba4 <notify_server+0xe1>
  401aef:	44 0f be 0d 31 36 20 	movsbl 0x203631(%rip),%r9d        # 605128 <target_prefix>
  401af6:	00 
  401af7:	83 3d 8a 29 20 00 00 	cmpl   $0x0,0x20298a(%rip)        # 604488 <notify>
  401afe:	0f 84 b9 00 00 00    	je     401bbd <notify_server+0xfa>
  401b04:	44 8b 05 f5 29 20 00 	mov    0x2029f5(%rip),%r8d        # 604500 <authkey>
  401b0b:	85 db                	test   %ebx,%ebx
  401b0d:	0f 84 b5 00 00 00    	je     401bc8 <notify_server+0x105>
  401b13:	bd b9 30 40 00       	mov    $0x4030b9,%ebp
  401b18:	68 20 45 60 00       	pushq  $0x604520
  401b1d:	56                   	push   %rsi
  401b1e:	48 89 e9             	mov    %rbp,%rcx
  401b21:	8b 15 21 26 20 00    	mov    0x202621(%rip),%edx        # 604148 <target_id>
  401b27:	be c3 30 40 00       	mov    $0x4030c3,%esi
  401b2c:	48 8d bc 24 10 20 00 	lea    0x2010(%rsp),%rdi
  401b33:	00 
  401b34:	b8 00 00 00 00       	mov    $0x0,%eax
  401b39:	e8 92 f3 ff ff       	callq  400ed0 <sprintf@plt>
  401b3e:	48 83 c4 10          	add    $0x10,%rsp
  401b42:	83 3d 3f 29 20 00 00 	cmpl   $0x0,0x20293f(%rip)        # 604488 <notify>
  401b49:	0f 84 ab 00 00 00    	je     401bfa <notify_server+0x137>
  401b4f:	85 db                	test   %ebx,%ebx
  401b51:	0f 84 97 00 00 00    	je     401bee <notify_server+0x12b>
  401b57:	49 89 e1             	mov    %rsp,%r9
  401b5a:	41 b8 00 00 00 00    	mov    $0x0,%r8d
  401b60:	48 8d 8c 24 00 20 00 	lea    0x2000(%rsp),%rcx
  401b67:	00 
  401b68:	48 8b 15 e1 25 20 00 	mov    0x2025e1(%rip),%rdx        # 604150 <lab>
  401b6f:	48 8b 35 e2 25 20 00 	mov    0x2025e2(%rip),%rsi        # 604158 <course>
  401b76:	48 8b 3d c3 25 20 00 	mov    0x2025c3(%rip),%rdi        # 604140 <user_id>
  401b7d:	e8 db 0f 00 00       	callq  402b5d <driver_post>
  401b82:	85 c0                	test   %eax,%eax
  401b84:	78 4c                	js     401bd2 <notify_server+0x10f>
  401b86:	bf 08 32 40 00       	mov    $0x403208,%edi
  401b8b:	e8 d0 f1 ff ff       	callq  400d60 <puts@plt>
  401b90:	bf eb 30 40 00       	mov    $0x4030eb,%edi
  401b95:	e8 c6 f1 ff ff       	callq  400d60 <puts@plt>
  401b9a:	48 81 c4 08 40 00 00 	add    $0x4008,%rsp
  401ba1:	5b                   	pop    %rbx
  401ba2:	5d                   	pop    %rbp
  401ba3:	c3                   	retq   
  401ba4:	bf d8 31 40 00       	mov    $0x4031d8,%edi
  401ba9:	b8 00 00 00 00       	mov    $0x0,%eax
  401bae:	e8 dd f1 ff ff       	callq  400d90 <printf@plt>
  401bb3:	bf 01 00 00 00       	mov    $0x1,%edi
  401bb8:	e8 23 f3 ff ff       	callq  400ee0 <exit@plt>
  401bbd:	41 b8 ff ff ff ff    	mov    $0xffffffff,%r8d
  401bc3:	e9 43 ff ff ff       	jmpq   401b0b <notify_server+0x48>
  401bc8:	bd be 30 40 00       	mov    $0x4030be,%ebp
  401bcd:	e9 46 ff ff ff       	jmpq   401b18 <notify_server+0x55>
  401bd2:	48 89 e6             	mov    %rsp,%rsi
  401bd5:	bf df 30 40 00       	mov    $0x4030df,%edi
  401bda:	b8 00 00 00 00       	mov    $0x0,%eax
  401bdf:	e8 ac f1 ff ff       	callq  400d90 <printf@plt>
  401be4:	bf 01 00 00 00       	mov    $0x1,%edi
  401be9:	e8 f2 f2 ff ff       	callq  400ee0 <exit@plt>
  401bee:	bf f5 30 40 00       	mov    $0x4030f5,%edi
  401bf3:	e8 68 f1 ff ff       	callq  400d60 <puts@plt>
  401bf8:	eb a0                	jmp    401b9a <notify_server+0xd7>
  401bfa:	48 89 ee             	mov    %rbp,%rsi
  401bfd:	bf 40 32 40 00       	mov    $0x403240,%edi
  401c02:	b8 00 00 00 00       	mov    $0x0,%eax
  401c07:	e8 84 f1 ff ff       	callq  400d90 <printf@plt>
  401c0c:	48 8b 35 2d 25 20 00 	mov    0x20252d(%rip),%rsi        # 604140 <user_id>
  401c13:	bf fc 30 40 00       	mov    $0x4030fc,%edi
  401c18:	b8 00 00 00 00       	mov    $0x0,%eax
  401c1d:	e8 6e f1 ff ff       	callq  400d90 <printf@plt>
  401c22:	48 8b 35 2f 25 20 00 	mov    0x20252f(%rip),%rsi        # 604158 <course>
  401c29:	bf 09 31 40 00       	mov    $0x403109,%edi
  401c2e:	b8 00 00 00 00       	mov    $0x0,%eax
  401c33:	e8 58 f1 ff ff       	callq  400d90 <printf@plt>
  401c38:	48 8b 35 11 25 20 00 	mov    0x202511(%rip),%rsi        # 604150 <lab>
  401c3f:	bf 15 31 40 00       	mov    $0x403115,%edi
  401c44:	b8 00 00 00 00       	mov    $0x0,%eax
  401c49:	e8 42 f1 ff ff       	callq  400d90 <printf@plt>
  401c4e:	48 8d b4 24 00 20 00 	lea    0x2000(%rsp),%rsi
  401c55:	00 
  401c56:	bf 1e 31 40 00       	mov    $0x40311e,%edi
  401c5b:	b8 00 00 00 00       	mov    $0x0,%eax
  401c60:	e8 2b f1 ff ff       	callq  400d90 <printf@plt>
  401c65:	e9 30 ff ff ff       	jmpq   401b9a <notify_server+0xd7>
  401c6a:	f3 c3                	repz retq 

0000000000401c6c <validate>:
  401c6c:	53                   	push   %rbx
  401c6d:	89 fb                	mov    %edi,%ebx
  401c6f:	83 3d 92 28 20 00 00 	cmpl   $0x0,0x202892(%rip)        # 604508 <is_checker>
  401c76:	74 60                	je     401cd8 <validate+0x6c>
  401c78:	39 3d 7e 28 20 00    	cmp    %edi,0x20287e(%rip)        # 6044fc <vlevel>
  401c7e:	75 29                	jne    401ca9 <validate+0x3d>
  401c80:	8b 35 72 28 20 00    	mov    0x202872(%rip),%esi        # 6044f8 <check_level>
  401c86:	39 fe                	cmp    %edi,%esi
  401c88:	75 33                	jne    401cbd <validate+0x51>
  401c8a:	0f be 35 97 34 20 00 	movsbl 0x203497(%rip),%esi        # 605128 <target_prefix>
  401c91:	b9 20 45 60 00       	mov    $0x604520,%ecx
  401c96:	89 fa                	mov    %edi,%edx
  401c98:	bf 48 31 40 00       	mov    $0x403148,%edi
  401c9d:	b8 00 00 00 00       	mov    $0x0,%eax
  401ca2:	e8 e9 f0 ff ff       	callq  400d90 <printf@plt>
  401ca7:	5b                   	pop    %rbx
  401ca8:	c3                   	retq   
  401ca9:	bf 2a 31 40 00       	mov    $0x40312a,%edi
  401cae:	e8 ad f0 ff ff       	callq  400d60 <puts@plt>
  401cb3:	b8 00 00 00 00       	mov    $0x0,%eax
  401cb8:	e8 85 fd ff ff       	callq  401a42 <check_fail>
  401cbd:	89 fa                	mov    %edi,%edx
  401cbf:	bf 68 32 40 00       	mov    $0x403268,%edi
  401cc4:	b8 00 00 00 00       	mov    $0x0,%eax
  401cc9:	e8 c2 f0 ff ff       	callq  400d90 <printf@plt>
  401cce:	b8 00 00 00 00       	mov    $0x0,%eax
  401cd3:	e8 6a fd ff ff       	callq  401a42 <check_fail>
  401cd8:	39 3d 1e 28 20 00    	cmp    %edi,0x20281e(%rip)        # 6044fc <vlevel>
  401cde:	74 18                	je     401cf8 <validate+0x8c>
  401ce0:	bf 2a 31 40 00       	mov    $0x40312a,%edi
  401ce5:	e8 76 f0 ff ff       	callq  400d60 <puts@plt>
  401cea:	89 de                	mov    %ebx,%esi
  401cec:	bf 00 00 00 00       	mov    $0x0,%edi
  401cf1:	e8 cd fd ff ff       	callq  401ac3 <notify_server>
  401cf6:	eb af                	jmp    401ca7 <validate+0x3b>
  401cf8:	0f be 15 29 34 20 00 	movsbl 0x203429(%rip),%edx        # 605128 <target_prefix>
  401cff:	89 fe                	mov    %edi,%esi
  401d01:	bf 90 32 40 00       	mov    $0x403290,%edi
  401d06:	b8 00 00 00 00       	mov    $0x0,%eax
  401d0b:	e8 80 f0 ff ff       	callq  400d90 <printf@plt>
  401d10:	89 de                	mov    %ebx,%esi
  401d12:	bf 01 00 00 00       	mov    $0x1,%edi
  401d17:	e8 a7 fd ff ff       	callq  401ac3 <notify_server>
  401d1c:	eb 89                	jmp    401ca7 <validate+0x3b>

0000000000401d1e <fail>:
  401d1e:	48 83 ec 08          	sub    $0x8,%rsp
  401d22:	83 3d df 27 20 00 00 	cmpl   $0x0,0x2027df(%rip)        # 604508 <is_checker>
  401d29:	75 11                	jne    401d3c <fail+0x1e>
  401d2b:	89 fe                	mov    %edi,%esi
  401d2d:	bf 00 00 00 00       	mov    $0x0,%edi
  401d32:	e8 8c fd ff ff       	callq  401ac3 <notify_server>
  401d37:	48 83 c4 08          	add    $0x8,%rsp
  401d3b:	c3                   	retq   
  401d3c:	b8 00 00 00 00       	mov    $0x0,%eax
  401d41:	e8 fc fc ff ff       	callq  401a42 <check_fail>

0000000000401d46 <bushandler>:
  401d46:	48 83 ec 08          	sub    $0x8,%rsp
  401d4a:	83 3d b7 27 20 00 00 	cmpl   $0x0,0x2027b7(%rip)        # 604508 <is_checker>
  401d51:	74 14                	je     401d67 <bushandler+0x21>
  401d53:	bf 5d 31 40 00       	mov    $0x40315d,%edi
  401d58:	e8 03 f0 ff ff       	callq  400d60 <puts@plt>
  401d5d:	b8 00 00 00 00       	mov    $0x0,%eax
  401d62:	e8 db fc ff ff       	callq  401a42 <check_fail>
  401d67:	bf c8 32 40 00       	mov    $0x4032c8,%edi
  401d6c:	e8 ef ef ff ff       	callq  400d60 <puts@plt>
  401d71:	bf 67 31 40 00       	mov    $0x403167,%edi
  401d76:	e8 e5 ef ff ff       	callq  400d60 <puts@plt>
  401d7b:	be 00 00 00 00       	mov    $0x0,%esi
  401d80:	bf 00 00 00 00       	mov    $0x0,%edi
  401d85:	e8 39 fd ff ff       	callq  401ac3 <notify_server>
  401d8a:	bf 01 00 00 00       	mov    $0x1,%edi
  401d8f:	e8 4c f1 ff ff       	callq  400ee0 <exit@plt>

0000000000401d94 <seghandler>:
  401d94:	48 83 ec 08          	sub    $0x8,%rsp
  401d98:	83 3d 69 27 20 00 00 	cmpl   $0x0,0x202769(%rip)        # 604508 <is_checker>
  401d9f:	74 14                	je     401db5 <seghandler+0x21>
  401da1:	bf 7d 31 40 00       	mov    $0x40317d,%edi
  401da6:	e8 b5 ef ff ff       	callq  400d60 <puts@plt>
  401dab:	b8 00 00 00 00       	mov    $0x0,%eax
  401db0:	e8 8d fc ff ff       	callq  401a42 <check_fail>
  401db5:	bf e8 32 40 00       	mov    $0x4032e8,%edi
  401dba:	e8 a1 ef ff ff       	callq  400d60 <puts@plt>
  401dbf:	bf 67 31 40 00       	mov    $0x403167,%edi
  401dc4:	e8 97 ef ff ff       	callq  400d60 <puts@plt>
  401dc9:	be 00 00 00 00       	mov    $0x0,%esi
  401dce:	bf 00 00 00 00       	mov    $0x0,%edi
  401dd3:	e8 eb fc ff ff       	callq  401ac3 <notify_server>
  401dd8:	bf 01 00 00 00       	mov    $0x1,%edi
  401ddd:	e8 fe f0 ff ff       	callq  400ee0 <exit@plt>

0000000000401de2 <illegalhandler>:
  401de2:	48 83 ec 08          	sub    $0x8,%rsp
  401de6:	83 3d 1b 27 20 00 00 	cmpl   $0x0,0x20271b(%rip)        # 604508 <is_checker>
  401ded:	74 14                	je     401e03 <illegalhandler+0x21>
  401def:	bf 90 31 40 00       	mov    $0x403190,%edi
  401df4:	e8 67 ef ff ff       	callq  400d60 <puts@plt>
  401df9:	b8 00 00 00 00       	mov    $0x0,%eax
  401dfe:	e8 3f fc ff ff       	callq  401a42 <check_fail>
  401e03:	bf 10 33 40 00       	mov    $0x403310,%edi
  401e08:	e8 53 ef ff ff       	callq  400d60 <puts@plt>
  401e0d:	bf 67 31 40 00       	mov    $0x403167,%edi
  401e12:	e8 49 ef ff ff       	callq  400d60 <puts@plt>
  401e17:	be 00 00 00 00       	mov    $0x0,%esi
  401e1c:	bf 00 00 00 00       	mov    $0x0,%edi
  401e21:	e8 9d fc ff ff       	callq  401ac3 <notify_server>
  401e26:	bf 01 00 00 00       	mov    $0x1,%edi
  401e2b:	e8 b0 f0 ff ff       	callq  400ee0 <exit@plt>

0000000000401e30 <sigalrmhandler>:
  401e30:	48 83 ec 08          	sub    $0x8,%rsp
  401e34:	83 3d cd 26 20 00 00 	cmpl   $0x0,0x2026cd(%rip)        # 604508 <is_checker>
  401e3b:	74 14                	je     401e51 <sigalrmhandler+0x21>
  401e3d:	bf a4 31 40 00       	mov    $0x4031a4,%edi
  401e42:	e8 19 ef ff ff       	callq  400d60 <puts@plt>
  401e47:	b8 00 00 00 00       	mov    $0x0,%eax
  401e4c:	e8 f1 fb ff ff       	callq  401a42 <check_fail>
  401e51:	be 05 00 00 00       	mov    $0x5,%esi
  401e56:	bf 40 33 40 00       	mov    $0x403340,%edi
  401e5b:	b8 00 00 00 00       	mov    $0x0,%eax
  401e60:	e8 2b ef ff ff       	callq  400d90 <printf@plt>
  401e65:	be 00 00 00 00       	mov    $0x0,%esi
  401e6a:	bf 00 00 00 00       	mov    $0x0,%edi
  401e6f:	e8 4f fc ff ff       	callq  401ac3 <notify_server>
  401e74:	bf 01 00 00 00       	mov    $0x1,%edi
  401e79:	e8 62 f0 ff ff       	callq  400ee0 <exit@plt>

0000000000401e7e <launch>:
  401e7e:	55                   	push   %rbp
  401e7f:	48 89 e5             	mov    %rsp,%rbp
  401e82:	48 89 fa             	mov    %rdi,%rdx
  401e85:	48 8d 47 1e          	lea    0x1e(%rdi),%rax
  401e89:	48 83 e0 f0          	and    $0xfffffffffffffff0,%rax
  401e8d:	48 29 c4             	sub    %rax,%rsp
  401e90:	48 8d 7c 24 0f       	lea    0xf(%rsp),%rdi
  401e95:	48 83 e7 f0          	and    $0xfffffffffffffff0,%rdi
  401e99:	be f4 00 00 00       	mov    $0xf4,%esi
  401e9e:	e8 fd ee ff ff       	callq  400da0 <memset@plt>
  401ea3:	48 8b 05 f6 25 20 00 	mov    0x2025f6(%rip),%rax        # 6044a0 <stdin@@GLIBC_2.2.5>
  401eaa:	48 39 05 3f 26 20 00 	cmp    %rax,0x20263f(%rip)        # 6044f0 <infile>
  401eb1:	74 29                	je     401edc <launch+0x5e>
  401eb3:	c7 05 3f 26 20 00 00 	movl   $0x0,0x20263f(%rip)        # 6044fc <vlevel>
  401eba:	00 00 00 
  401ebd:	b8 00 00 00 00       	mov    $0x0,%eax
  401ec2:	e8 ec fa ff ff       	callq  4019b3 <test>
  401ec7:	83 3d 3a 26 20 00 00 	cmpl   $0x0,0x20263a(%rip)        # 604508 <is_checker>
  401ece:	75 1d                	jne    401eed <launch+0x6f>
  401ed0:	bf c4 31 40 00       	mov    $0x4031c4,%edi
  401ed5:	e8 86 ee ff ff       	callq  400d60 <puts@plt>
  401eda:	c9                   	leaveq 
  401edb:	c3                   	retq   
  401edc:	bf ac 31 40 00       	mov    $0x4031ac,%edi
  401ee1:	b8 00 00 00 00       	mov    $0x0,%eax
  401ee6:	e8 a5 ee ff ff       	callq  400d90 <printf@plt>
  401eeb:	eb c6                	jmp    401eb3 <launch+0x35>
  401eed:	bf b9 31 40 00       	mov    $0x4031b9,%edi
  401ef2:	e8 69 ee ff ff       	callq  400d60 <puts@plt>
  401ef7:	b8 00 00 00 00       	mov    $0x0,%eax
  401efc:	e8 41 fb ff ff       	callq  401a42 <check_fail>

0000000000401f01 <stable_launch>:
  401f01:	53                   	push   %rbx
  401f02:	48 89 3d df 25 20 00 	mov    %rdi,0x2025df(%rip)        # 6044e8 <global_offset>
  401f09:	41 b9 00 00 00 00    	mov    $0x0,%r9d
  401f0f:	41 b8 00 00 00 00    	mov    $0x0,%r8d
  401f15:	b9 32 01 00 00       	mov    $0x132,%ecx
  401f1a:	ba 07 00 00 00       	mov    $0x7,%edx
  401f1f:	be 00 00 10 00       	mov    $0x100000,%esi
  401f24:	bf 00 60 58 55       	mov    $0x55586000,%edi
  401f29:	e8 52 ee ff ff       	callq  400d80 <mmap@plt>
  401f2e:	48 89 c3             	mov    %rax,%rbx
  401f31:	48 3d 00 60 58 55    	cmp    $0x55586000,%rax
  401f37:	75 43                	jne    401f7c <stable_launch+0x7b>
  401f39:	48 8d 90 f8 ff 0f 00 	lea    0xffff8(%rax),%rdx
  401f40:	48 89 15 e9 31 20 00 	mov    %rdx,0x2031e9(%rip)        # 605130 <stack_top>
  401f47:	48 89 e0             	mov    %rsp,%rax
  401f4a:	48 89 d4             	mov    %rdx,%rsp
  401f4d:	48 89 c2             	mov    %rax,%rdx
  401f50:	48 89 15 89 25 20 00 	mov    %rdx,0x202589(%rip)        # 6044e0 <global_save_stack>
  401f57:	48 8b 3d 8a 25 20 00 	mov    0x20258a(%rip),%rdi        # 6044e8 <global_offset>
  401f5e:	e8 1b ff ff ff       	callq  401e7e <launch>
  401f63:	48 8b 05 76 25 20 00 	mov    0x202576(%rip),%rax        # 6044e0 <global_save_stack>
  401f6a:	48 89 c4             	mov    %rax,%rsp
  401f6d:	be 00 00 10 00       	mov    $0x100000,%esi
  401f72:	48 89 df             	mov    %rbx,%rdi
  401f75:	e8 f6 ee ff ff       	callq  400e70 <munmap@plt>
  401f7a:	5b                   	pop    %rbx
  401f7b:	c3                   	retq   
  401f7c:	be 00 00 10 00       	mov    $0x100000,%esi
  401f81:	48 89 c7             	mov    %rax,%rdi
  401f84:	e8 e7 ee ff ff       	callq  400e70 <munmap@plt>
  401f89:	ba 00 60 58 55       	mov    $0x55586000,%edx
  401f8e:	be 78 33 40 00       	mov    $0x403378,%esi
  401f93:	48 8b 3d 26 25 20 00 	mov    0x202526(%rip),%rdi        # 6044c0 <stderr@@GLIBC_2.2.5>
  401f9a:	b8 00 00 00 00       	mov    $0x0,%eax
  401f9f:	e8 5c ee ff ff       	callq  400e00 <fprintf@plt>
  401fa4:	bf 01 00 00 00       	mov    $0x1,%edi
  401fa9:	e8 32 ef ff ff       	callq  400ee0 <exit@plt>

0000000000401fae <rio_readinitb>:
  401fae:	89 37                	mov    %esi,(%rdi)
  401fb0:	c7 47 04 00 00 00 00 	movl   $0x0,0x4(%rdi)
  401fb7:	48 8d 47 10          	lea    0x10(%rdi),%rax
  401fbb:	48 89 47 08          	mov    %rax,0x8(%rdi)
  401fbf:	c3                   	retq   

0000000000401fc0 <sigalrm_handler>:
  401fc0:	48 83 ec 08          	sub    $0x8,%rsp
  401fc4:	ba 00 00 00 00       	mov    $0x0,%edx
  401fc9:	be b0 33 40 00       	mov    $0x4033b0,%esi
  401fce:	48 8b 3d eb 24 20 00 	mov    0x2024eb(%rip),%rdi        # 6044c0 <stderr@@GLIBC_2.2.5>
  401fd5:	b8 00 00 00 00       	mov    $0x0,%eax
  401fda:	e8 21 ee ff ff       	callq  400e00 <fprintf@plt>
  401fdf:	bf 01 00 00 00       	mov    $0x1,%edi
  401fe4:	e8 f7 ee ff ff       	callq  400ee0 <exit@plt>

0000000000401fe9 <urlencode>:
  401fe9:	41 54                	push   %r12
  401feb:	55                   	push   %rbp
  401fec:	53                   	push   %rbx
  401fed:	48 83 ec 10          	sub    $0x10,%rsp
  401ff1:	48 89 fb             	mov    %rdi,%rbx
  401ff4:	48 89 f5             	mov    %rsi,%rbp
  401ff7:	48 c7 c1 ff ff ff ff 	mov    $0xffffffffffffffff,%rcx
  401ffe:	b8 00 00 00 00       	mov    $0x0,%eax
  402003:	f2 ae                	repnz scas %es:(%rdi),%al
  402005:	48 89 ce             	mov    %rcx,%rsi
  402008:	48 f7 d6             	not    %rsi
  40200b:	8d 46 ff             	lea    -0x1(%rsi),%eax
  40200e:	eb 0e                	jmp    40201e <urlencode+0x35>
  402010:	88 45 00             	mov    %al,0x0(%rbp)
  402013:	48 8d 6d 01          	lea    0x1(%rbp),%rbp
  402017:	48 83 c3 01          	add    $0x1,%rbx
  40201b:	44 89 e0             	mov    %r12d,%eax
  40201e:	44 8d 60 ff          	lea    -0x1(%rax),%r12d
  402022:	85 c0                	test   %eax,%eax
  402024:	0f 84 91 00 00 00    	je     4020bb <urlencode+0xd2>
  40202a:	0f b6 03             	movzbl (%rbx),%eax
  40202d:	3c 2a                	cmp    $0x2a,%al
  40202f:	0f 94 c1             	sete   %cl
  402032:	3c 2d                	cmp    $0x2d,%al
  402034:	0f 94 c2             	sete   %dl
  402037:	08 d1                	or     %dl,%cl
  402039:	75 d5                	jne    402010 <urlencode+0x27>
  40203b:	3c 2e                	cmp    $0x2e,%al
  40203d:	74 d1                	je     402010 <urlencode+0x27>
  40203f:	3c 5f                	cmp    $0x5f,%al
  402041:	74 cd                	je     402010 <urlencode+0x27>
  402043:	8d 50 d0             	lea    -0x30(%rax),%edx
  402046:	80 fa 09             	cmp    $0x9,%dl
  402049:	76 c5                	jbe    402010 <urlencode+0x27>
  40204b:	8d 50 bf             	lea    -0x41(%rax),%edx
  40204e:	80 fa 19             	cmp    $0x19,%dl
  402051:	76 bd                	jbe    402010 <urlencode+0x27>
  402053:	8d 50 9f             	lea    -0x61(%rax),%edx
  402056:	80 fa 19             	cmp    $0x19,%dl
  402059:	76 b5                	jbe    402010 <urlencode+0x27>
  40205b:	3c 20                	cmp    $0x20,%al
  40205d:	74 4a                	je     4020a9 <urlencode+0xc0>
  40205f:	8d 50 e0             	lea    -0x20(%rax),%edx
  402062:	80 fa 5f             	cmp    $0x5f,%dl
  402065:	0f 96 c1             	setbe  %cl
  402068:	3c 09                	cmp    $0x9,%al
  40206a:	0f 94 c2             	sete   %dl
  40206d:	08 d1                	or     %dl,%cl
  40206f:	74 45                	je     4020b6 <urlencode+0xcd>
  402071:	0f b6 d0             	movzbl %al,%edx
  402074:	be 48 34 40 00       	mov    $0x403448,%esi
  402079:	48 8d 7c 24 08       	lea    0x8(%rsp),%rdi
  40207e:	b8 00 00 00 00       	mov    $0x0,%eax
  402083:	e8 48 ee ff ff       	callq  400ed0 <sprintf@plt>
  402088:	0f b6 44 24 08       	movzbl 0x8(%rsp),%eax
  40208d:	88 45 00             	mov    %al,0x0(%rbp)
  402090:	0f b6 44 24 09       	movzbl 0x9(%rsp),%eax
  402095:	88 45 01             	mov    %al,0x1(%rbp)
  402098:	0f b6 44 24 0a       	movzbl 0xa(%rsp),%eax
  40209d:	88 45 02             	mov    %al,0x2(%rbp)
  4020a0:	48 8d 6d 03          	lea    0x3(%rbp),%rbp
  4020a4:	e9 6e ff ff ff       	jmpq   402017 <urlencode+0x2e>
  4020a9:	c6 45 00 2b          	movb   $0x2b,0x0(%rbp)
  4020ad:	48 8d 6d 01          	lea    0x1(%rbp),%rbp
  4020b1:	e9 61 ff ff ff       	jmpq   402017 <urlencode+0x2e>
  4020b6:	b8 ff ff ff ff       	mov    $0xffffffff,%eax
  4020bb:	48 83 c4 10          	add    $0x10,%rsp
  4020bf:	5b                   	pop    %rbx
  4020c0:	5d                   	pop    %rbp
  4020c1:	41 5c                	pop    %r12
  4020c3:	c3                   	retq   

00000000004020c4 <rio_writen>:
  4020c4:	41 55                	push   %r13
  4020c6:	41 54                	push   %r12
  4020c8:	55                   	push   %rbp
  4020c9:	53                   	push   %rbx
  4020ca:	48 83 ec 08          	sub    $0x8,%rsp
  4020ce:	41 89 fc             	mov    %edi,%r12d
  4020d1:	48 89 f5             	mov    %rsi,%rbp
  4020d4:	49 89 d5             	mov    %rdx,%r13
  4020d7:	48 89 d3             	mov    %rdx,%rbx
  4020da:	eb 06                	jmp    4020e2 <rio_writen+0x1e>
  4020dc:	48 29 c3             	sub    %rax,%rbx
  4020df:	48 01 c5             	add    %rax,%rbp
  4020e2:	48 85 db             	test   %rbx,%rbx
  4020e5:	74 24                	je     40210b <rio_writen+0x47>
  4020e7:	48 89 da             	mov    %rbx,%rdx
  4020ea:	48 89 ee             	mov    %rbp,%rsi
  4020ed:	44 89 e7             	mov    %r12d,%edi
  4020f0:	e8 7b ec ff ff       	callq  400d70 <write@plt>
  4020f5:	48 85 c0             	test   %rax,%rax
  4020f8:	7f e2                	jg     4020dc <rio_writen+0x18>
  4020fa:	e8 21 ec ff ff       	callq  400d20 <__errno_location@plt>
  4020ff:	83 38 04             	cmpl   $0x4,(%rax)
  402102:	75 15                	jne    402119 <rio_writen+0x55>
  402104:	b8 00 00 00 00       	mov    $0x0,%eax
  402109:	eb d1                	jmp    4020dc <rio_writen+0x18>
  40210b:	4c 89 e8             	mov    %r13,%rax
  40210e:	48 83 c4 08          	add    $0x8,%rsp
  402112:	5b                   	pop    %rbx
  402113:	5d                   	pop    %rbp
  402114:	41 5c                	pop    %r12
  402116:	41 5d                	pop    %r13
  402118:	c3                   	retq   
  402119:	48 c7 c0 ff ff ff ff 	mov    $0xffffffffffffffff,%rax
  402120:	eb ec                	jmp    40210e <rio_writen+0x4a>

0000000000402122 <rio_read>:
  402122:	41 55                	push   %r13
  402124:	41 54                	push   %r12
  402126:	55                   	push   %rbp
  402127:	53                   	push   %rbx
  402128:	48 83 ec 08          	sub    $0x8,%rsp
  40212c:	48 89 fb             	mov    %rdi,%rbx
  40212f:	49 89 f5             	mov    %rsi,%r13
  402132:	49 89 d4             	mov    %rdx,%r12
  402135:	eb 0a                	jmp    402141 <rio_read+0x1f>
  402137:	e8 e4 eb ff ff       	callq  400d20 <__errno_location@plt>
  40213c:	83 38 04             	cmpl   $0x4,(%rax)
  40213f:	75 5c                	jne    40219d <rio_read+0x7b>
  402141:	8b 6b 04             	mov    0x4(%rbx),%ebp
  402144:	85 ed                	test   %ebp,%ebp
  402146:	7f 24                	jg     40216c <rio_read+0x4a>
  402148:	48 8d 6b 10          	lea    0x10(%rbx),%rbp
  40214c:	ba 00 20 00 00       	mov    $0x2000,%edx
  402151:	48 89 ee             	mov    %rbp,%rsi
  402154:	8b 3b                	mov    (%rbx),%edi
  402156:	e8 75 ec ff ff       	callq  400dd0 <read@plt>
  40215b:	89 43 04             	mov    %eax,0x4(%rbx)
  40215e:	85 c0                	test   %eax,%eax
  402160:	78 d5                	js     402137 <rio_read+0x15>
  402162:	85 c0                	test   %eax,%eax
  402164:	74 40                	je     4021a6 <rio_read+0x84>
  402166:	48 89 6b 08          	mov    %rbp,0x8(%rbx)
  40216a:	eb d5                	jmp    402141 <rio_read+0x1f>
  40216c:	89 e8                	mov    %ebp,%eax
  40216e:	4c 39 e0             	cmp    %r12,%rax
  402171:	72 03                	jb     402176 <rio_read+0x54>
  402173:	44 89 e5             	mov    %r12d,%ebp
  402176:	4c 63 e5             	movslq %ebp,%r12
  402179:	48 8b 73 08          	mov    0x8(%rbx),%rsi
  40217d:	4c 89 e2             	mov    %r12,%rdx
  402180:	4c 89 ef             	mov    %r13,%rdi
  402183:	e8 98 ec ff ff       	callq  400e20 <memcpy@plt>
  402188:	4c 01 63 08          	add    %r12,0x8(%rbx)
  40218c:	29 6b 04             	sub    %ebp,0x4(%rbx)
  40218f:	4c 89 e0             	mov    %r12,%rax
  402192:	48 83 c4 08          	add    $0x8,%rsp
  402196:	5b                   	pop    %rbx
  402197:	5d                   	pop    %rbp
  402198:	41 5c                	pop    %r12
  40219a:	41 5d                	pop    %r13
  40219c:	c3                   	retq   
  40219d:	48 c7 c0 ff ff ff ff 	mov    $0xffffffffffffffff,%rax
  4021a4:	eb ec                	jmp    402192 <rio_read+0x70>
  4021a6:	b8 00 00 00 00       	mov    $0x0,%eax
  4021ab:	eb e5                	jmp    402192 <rio_read+0x70>

00000000004021ad <rio_readlineb>:
  4021ad:	41 55                	push   %r13
  4021af:	41 54                	push   %r12
  4021b1:	55                   	push   %rbp
  4021b2:	53                   	push   %rbx
  4021b3:	48 83 ec 18          	sub    $0x18,%rsp
  4021b7:	49 89 fd             	mov    %rdi,%r13
  4021ba:	48 89 f5             	mov    %rsi,%rbp
  4021bd:	49 89 d4             	mov    %rdx,%r12
  4021c0:	bb 01 00 00 00       	mov    $0x1,%ebx
  4021c5:	4c 39 e3             	cmp    %r12,%rbx
  4021c8:	73 47                	jae    402211 <rio_readlineb+0x64>
  4021ca:	ba 01 00 00 00       	mov    $0x1,%edx
  4021cf:	48 8d 74 24 0f       	lea    0xf(%rsp),%rsi
  4021d4:	4c 89 ef             	mov    %r13,%rdi
  4021d7:	e8 46 ff ff ff       	callq  402122 <rio_read>
  4021dc:	83 f8 01             	cmp    $0x1,%eax
  4021df:	75 1c                	jne    4021fd <rio_readlineb+0x50>
  4021e1:	48 8d 45 01          	lea    0x1(%rbp),%rax
  4021e5:	0f b6 54 24 0f       	movzbl 0xf(%rsp),%edx
  4021ea:	88 55 00             	mov    %dl,0x0(%rbp)
  4021ed:	80 7c 24 0f 0a       	cmpb   $0xa,0xf(%rsp)
  4021f2:	74 1a                	je     40220e <rio_readlineb+0x61>
  4021f4:	48 83 c3 01          	add    $0x1,%rbx
  4021f8:	48 89 c5             	mov    %rax,%rbp
  4021fb:	eb c8                	jmp    4021c5 <rio_readlineb+0x18>
  4021fd:	85 c0                	test   %eax,%eax
  4021ff:	75 22                	jne    402223 <rio_readlineb+0x76>
  402201:	48 83 fb 01          	cmp    $0x1,%rbx
  402205:	75 0a                	jne    402211 <rio_readlineb+0x64>
  402207:	b8 00 00 00 00       	mov    $0x0,%eax
  40220c:	eb 0a                	jmp    402218 <rio_readlineb+0x6b>
  40220e:	48 89 c5             	mov    %rax,%rbp
  402211:	c6 45 00 00          	movb   $0x0,0x0(%rbp)
  402215:	48 89 d8             	mov    %rbx,%rax
  402218:	48 83 c4 18          	add    $0x18,%rsp
  40221c:	5b                   	pop    %rbx
  40221d:	5d                   	pop    %rbp
  40221e:	41 5c                	pop    %r12
  402220:	41 5d                	pop    %r13
  402222:	c3                   	retq   
  402223:	48 c7 c0 ff ff ff ff 	mov    $0xffffffffffffffff,%rax
  40222a:	eb ec                	jmp    402218 <rio_readlineb+0x6b>

000000000040222c <submitr>:
  40222c:	41 57                	push   %r15
  40222e:	41 56                	push   %r14
  402230:	41 55                	push   %r13
  402232:	41 54                	push   %r12
  402234:	55                   	push   %rbp
  402235:	53                   	push   %rbx
  402236:	48 81 ec 48 a0 00 00 	sub    $0xa048,%rsp
  40223d:	49 89 fc             	mov    %rdi,%r12
  402240:	89 74 24 04          	mov    %esi,0x4(%rsp)
  402244:	49 89 d7             	mov    %rdx,%r15
  402247:	49 89 ce             	mov    %rcx,%r14
  40224a:	4c 89 44 24 08       	mov    %r8,0x8(%rsp)
  40224f:	4d 89 cd             	mov    %r9,%r13
  402252:	48 8b ac 24 80 a0 00 	mov    0xa080(%rsp),%rbp
  402259:	00 
  40225a:	c7 84 24 1c 20 00 00 	movl   $0x0,0x201c(%rsp)
  402261:	00 00 00 00 
  402265:	ba 00 00 00 00       	mov    $0x0,%edx
  40226a:	be 01 00 00 00       	mov    $0x1,%esi
  40226f:	bf 02 00 00 00       	mov    $0x2,%edi
  402274:	e8 87 ec ff ff       	callq  400f00 <socket@plt>
  402279:	85 c0                	test   %eax,%eax
  40227b:	0f 88 86 02 00 00    	js     402507 <submitr+0x2db>
  402281:	89 c3                	mov    %eax,%ebx
  402283:	4c 89 e7             	mov    %r12,%rdi
  402286:	e8 65 eb ff ff       	callq  400df0 <gethostbyname@plt>
  40228b:	48 85 c0             	test   %rax,%rax
  40228e:	0f 84 bf 02 00 00    	je     402553 <submitr+0x327>
  402294:	48 c7 84 24 30 a0 00 	movq   $0x0,0xa030(%rsp)
  40229b:	00 00 00 00 00 
  4022a0:	48 c7 84 24 38 a0 00 	movq   $0x0,0xa038(%rsp)
  4022a7:	00 00 00 00 00 
  4022ac:	66 c7 84 24 30 a0 00 	movw   $0x2,0xa030(%rsp)
  4022b3:	00 02 00 
  4022b6:	48 8b 48 18          	mov    0x18(%rax),%rcx
  4022ba:	48 63 50 14          	movslq 0x14(%rax),%rdx
  4022be:	48 8d b4 24 34 a0 00 	lea    0xa034(%rsp),%rsi
  4022c5:	00 
  4022c6:	48 8b 39             	mov    (%rcx),%rdi
  4022c9:	e8 b2 eb ff ff       	callq  400e80 <bcopy@plt>
  4022ce:	0f b7 44 24 04       	movzwl 0x4(%rsp),%eax
  4022d3:	66 c1 c8 08          	ror    $0x8,%ax
  4022d7:	66 89 84 24 32 a0 00 	mov    %ax,0xa032(%rsp)
  4022de:	00 
  4022df:	ba 10 00 00 00       	mov    $0x10,%edx
  4022e4:	48 8d b4 24 30 a0 00 	lea    0xa030(%rsp),%rsi
  4022eb:	00 
  4022ec:	89 df                	mov    %ebx,%edi
  4022ee:	e8 fd eb ff ff       	callq  400ef0 <connect@plt>
  4022f3:	85 c0                	test   %eax,%eax
  4022f5:	0f 88 c0 02 00 00    	js     4025bb <submitr+0x38f>
  4022fb:	48 c7 c6 ff ff ff ff 	mov    $0xffffffffffffffff,%rsi
  402302:	b8 00 00 00 00       	mov    $0x0,%eax
  402307:	48 89 f1             	mov    %rsi,%rcx
  40230a:	4c 89 ef             	mov    %r13,%rdi
  40230d:	f2 ae                	repnz scas %es:(%rdi),%al
  40230f:	48 89 ca             	mov    %rcx,%rdx
  402312:	48 f7 d2             	not    %rdx
  402315:	48 89 f1             	mov    %rsi,%rcx
  402318:	4c 89 ff             	mov    %r15,%rdi
  40231b:	f2 ae                	repnz scas %es:(%rdi),%al
  40231d:	48 f7 d1             	not    %rcx
  402320:	49 89 c8             	mov    %rcx,%r8
  402323:	48 89 f1             	mov    %rsi,%rcx
  402326:	4c 89 f7             	mov    %r14,%rdi
  402329:	f2 ae                	repnz scas %es:(%rdi),%al
  40232b:	48 f7 d1             	not    %rcx
  40232e:	4d 8d 44 08 fe       	lea    -0x2(%r8,%rcx,1),%r8
  402333:	48 89 f1             	mov    %rsi,%rcx
  402336:	48 8b 7c 24 08       	mov    0x8(%rsp),%rdi
  40233b:	f2 ae                	repnz scas %es:(%rdi),%al
  40233d:	48 89 c8             	mov    %rcx,%rax
  402340:	48 f7 d0             	not    %rax
  402343:	49 8d 4c 00 ff       	lea    -0x1(%r8,%rax,1),%rcx
  402348:	48 8d 44 52 fd       	lea    -0x3(%rdx,%rdx,2),%rax
  40234d:	48 8d 84 01 80 00 00 	lea    0x80(%rcx,%rax,1),%rax
  402354:	00 
  402355:	48 3d 00 20 00 00    	cmp    $0x2000,%rax
  40235b:	0f 87 b4 02 00 00    	ja     402615 <submitr+0x3e9>
  402361:	48 8d b4 24 20 40 00 	lea    0x4020(%rsp),%rsi
  402368:	00 
  402369:	b9 00 04 00 00       	mov    $0x400,%ecx
  40236e:	b8 00 00 00 00       	mov    $0x0,%eax
  402373:	48 89 f7             	mov    %rsi,%rdi
  402376:	f3 48 ab             	rep stos %rax,%es:(%rdi)
  402379:	4c 89 ef             	mov    %r13,%rdi
  40237c:	e8 68 fc ff ff       	callq  401fe9 <urlencode>
  402381:	85 c0                	test   %eax,%eax
  402383:	0f 88 ff 02 00 00    	js     402688 <submitr+0x45c>
  402389:	4c 8d ac 24 20 60 00 	lea    0x6020(%rsp),%r13
  402390:	00 
  402391:	4d 89 e1             	mov    %r12,%r9
  402394:	4c 8d 84 24 20 40 00 	lea    0x4020(%rsp),%r8
  40239b:	00 
  40239c:	4c 89 f9             	mov    %r15,%rcx
  40239f:	4c 89 f2             	mov    %r14,%rdx
  4023a2:	be d8 33 40 00       	mov    $0x4033d8,%esi
  4023a7:	4c 89 ef             	mov    %r13,%rdi
  4023aa:	b8 00 00 00 00       	mov    $0x0,%eax
  4023af:	e8 1c eb ff ff       	callq  400ed0 <sprintf@plt>
  4023b4:	48 c7 c1 ff ff ff ff 	mov    $0xffffffffffffffff,%rcx
  4023bb:	b8 00 00 00 00       	mov    $0x0,%eax
  4023c0:	4c 89 ef             	mov    %r13,%rdi
  4023c3:	f2 ae                	repnz scas %es:(%rdi),%al
  4023c5:	48 89 ca             	mov    %rcx,%rdx
  4023c8:	48 f7 d2             	not    %rdx
  4023cb:	48 8d 52 ff          	lea    -0x1(%rdx),%rdx
  4023cf:	4c 89 ee             	mov    %r13,%rsi
  4023d2:	89 df                	mov    %ebx,%edi
  4023d4:	e8 eb fc ff ff       	callq  4020c4 <rio_writen>
  4023d9:	48 85 c0             	test   %rax,%rax
  4023dc:	0f 88 31 03 00 00    	js     402713 <submitr+0x4e7>
  4023e2:	89 de                	mov    %ebx,%esi
  4023e4:	48 8d bc 24 20 80 00 	lea    0x8020(%rsp),%rdi
  4023eb:	00 
  4023ec:	e8 bd fb ff ff       	callq  401fae <rio_readinitb>
  4023f1:	ba 00 20 00 00       	mov    $0x2000,%edx
  4023f6:	48 8d b4 24 20 60 00 	lea    0x6020(%rsp),%rsi
  4023fd:	00 
  4023fe:	48 8d bc 24 20 80 00 	lea    0x8020(%rsp),%rdi
  402405:	00 
  402406:	e8 a2 fd ff ff       	callq  4021ad <rio_readlineb>
  40240b:	48 85 c0             	test   %rax,%rax
  40240e:	0f 8e 6e 03 00 00    	jle    402782 <submitr+0x556>
  402414:	4c 8d 44 24 10       	lea    0x10(%rsp),%r8
  402419:	48 8d 8c 24 1c 20 00 	lea    0x201c(%rsp),%rcx
  402420:	00 
  402421:	48 8d 94 24 20 20 00 	lea    0x2020(%rsp),%rdx
  402428:	00 
  402429:	be 4f 34 40 00       	mov    $0x40344f,%esi
  40242e:	48 8d bc 24 20 60 00 	lea    0x6020(%rsp),%rdi
  402435:	00 
  402436:	b8 00 00 00 00       	mov    $0x0,%eax
  40243b:	e8 20 ea ff ff       	callq  400e60 <__isoc99_sscanf@plt>
  402440:	48 8d b4 24 20 60 00 	lea    0x6020(%rsp),%rsi
  402447:	00 
  402448:	bf 66 34 40 00       	mov    $0x403466,%edi
  40244d:	b9 03 00 00 00       	mov    $0x3,%ecx
  402452:	f3 a6                	repz cmpsb %es:(%rdi),%ds:(%rsi)
  402454:	0f 97 c0             	seta   %al
  402457:	1c 00                	sbb    $0x0,%al
  402459:	84 c0                	test   %al,%al
  40245b:	0f 84 9f 03 00 00    	je     402800 <submitr+0x5d4>
  402461:	ba 00 20 00 00       	mov    $0x2000,%edx
  402466:	48 8d b4 24 20 60 00 	lea    0x6020(%rsp),%rsi
  40246d:	00 
  40246e:	48 8d bc 24 20 80 00 	lea    0x8020(%rsp),%rdi
  402475:	00 
  402476:	e8 32 fd ff ff       	callq  4021ad <rio_readlineb>
  40247b:	48 85 c0             	test   %rax,%rax
  40247e:	7f c0                	jg     402440 <submitr+0x214>
  402480:	48 b8 45 72 72 6f 72 	movabs $0x43203a726f727245,%rax
  402487:	3a 20 43 
  40248a:	48 ba 6c 69 65 6e 74 	movabs $0x6e7520746e65696c,%rdx
  402491:	20 75 6e 
  402494:	48 89 45 00          	mov    %rax,0x0(%rbp)
  402498:	48 89 55 08          	mov    %rdx,0x8(%rbp)
  40249c:	48 b8 61 62 6c 65 20 	movabs $0x206f7420656c6261,%rax
  4024a3:	74 6f 20 
  4024a6:	48 ba 72 65 61 64 20 	movabs $0x6165682064616572,%rdx
  4024ad:	68 65 61 
  4024b0:	48 89 45 10          	mov    %rax,0x10(%rbp)
  4024b4:	48 89 55 18          	mov    %rdx,0x18(%rbp)
  4024b8:	48 b8 64 65 72 73 20 	movabs $0x6f72662073726564,%rax
  4024bf:	66 72 6f 
  4024c2:	48 ba 6d 20 74 68 65 	movabs $0x657220656874206d,%rdx
  4024c9:	20 72 65 
  4024cc:	48 89 45 20          	mov    %rax,0x20(%rbp)
  4024d0:	48 89 55 28          	mov    %rdx,0x28(%rbp)
  4024d4:	48 b8 73 75 6c 74 20 	movabs $0x72657320746c7573,%rax
  4024db:	73 65 72 
  4024de:	48 89 45 30          	mov    %rax,0x30(%rbp)
  4024e2:	c7 45 38 76 65 72 00 	movl   $0x726576,0x38(%rbp)
  4024e9:	89 df                	mov    %ebx,%edi
  4024eb:	e8 d0 e8 ff ff       	callq  400dc0 <close@plt>
  4024f0:	b8 ff ff ff ff       	mov    $0xffffffff,%eax
  4024f5:	48 81 c4 48 a0 00 00 	add    $0xa048,%rsp
  4024fc:	5b                   	pop    %rbx
  4024fd:	5d                   	pop    %rbp
  4024fe:	41 5c                	pop    %r12
  402500:	41 5d                	pop    %r13
  402502:	41 5e                	pop    %r14
  402504:	41 5f                	pop    %r15
  402506:	c3                   	retq   
  402507:	48 b8 45 72 72 6f 72 	movabs $0x43203a726f727245,%rax
  40250e:	3a 20 43 
  402511:	48 ba 6c 69 65 6e 74 	movabs $0x6e7520746e65696c,%rdx
  402518:	20 75 6e 
  40251b:	48 89 45 00          	mov    %rax,0x0(%rbp)
  40251f:	48 89 55 08          	mov    %rdx,0x8(%rbp)
  402523:	48 b8 61 62 6c 65 20 	movabs $0x206f7420656c6261,%rax
  40252a:	74 6f 20 
  40252d:	48 ba 63 72 65 61 74 	movabs $0x7320657461657263,%rdx
  402534:	65 20 73 
  402537:	48 89 45 10          	mov    %rax,0x10(%rbp)
  40253b:	48 89 55 18          	mov    %rdx,0x18(%rbp)
  40253f:	c7 45 20 6f 63 6b 65 	movl   $0x656b636f,0x20(%rbp)
  402546:	66 c7 45 24 74 00    	movw   $0x74,0x24(%rbp)
  40254c:	b8 ff ff ff ff       	mov    $0xffffffff,%eax
  402551:	eb a2                	jmp    4024f5 <submitr+0x2c9>
  402553:	48 b8 45 72 72 6f 72 	movabs $0x44203a726f727245,%rax
  40255a:	3a 20 44 
  40255d:	48 ba 4e 53 20 69 73 	movabs $0x6e7520736920534e,%rdx
  402564:	20 75 6e 
  402567:	48 89 45 00          	mov    %rax,0x0(%rbp)
  40256b:	48 89 55 08          	mov    %rdx,0x8(%rbp)
  40256f:	48 b8 61 62 6c 65 20 	movabs $0x206f7420656c6261,%rax
  402576:	74 6f 20 
  402579:	48 ba 72 65 73 6f 6c 	movabs $0x2065766c6f736572,%rdx
  402580:	76 65 20 
  402583:	48 89 45 10          	mov    %rax,0x10(%rbp)
  402587:	48 89 55 18          	mov    %rdx,0x18(%rbp)
  40258b:	48 b8 73 65 72 76 65 	movabs $0x6120726576726573,%rax
  402592:	72 20 61 
  402595:	48 89 45 20          	mov    %rax,0x20(%rbp)
  402599:	c7 45 28 64 64 72 65 	movl   $0x65726464,0x28(%rbp)
  4025a0:	66 c7 45 2c 73 73    	movw   $0x7373,0x2c(%rbp)
  4025a6:	c6 45 2e 00          	movb   $0x0,0x2e(%rbp)
  4025aa:	89 df                	mov    %ebx,%edi
  4025ac:	e8 0f e8 ff ff       	callq  400dc0 <close@plt>
  4025b1:	b8 ff ff ff ff       	mov    $0xffffffff,%eax
  4025b6:	e9 3a ff ff ff       	jmpq   4024f5 <submitr+0x2c9>
  4025bb:	48 b8 45 72 72 6f 72 	movabs $0x55203a726f727245,%rax
  4025c2:	3a 20 55 
  4025c5:	48 ba 6e 61 62 6c 65 	movabs $0x6f7420656c62616e,%rdx
  4025cc:	20 74 6f 
  4025cf:	48 89 45 00          	mov    %rax,0x0(%rbp)
  4025d3:	48 89 55 08          	mov    %rdx,0x8(%rbp)
  4025d7:	48 b8 20 63 6f 6e 6e 	movabs $0x7463656e6e6f6320,%rax
  4025de:	65 63 74 
  4025e1:	48 ba 20 74 6f 20 74 	movabs $0x20656874206f7420,%rdx
  4025e8:	68 65 20 
  4025eb:	48 89 45 10          	mov    %rax,0x10(%rbp)
  4025ef:	48 89 55 18          	mov    %rdx,0x18(%rbp)
  4025f3:	c7 45 20 73 65 72 76 	movl   $0x76726573,0x20(%rbp)
  4025fa:	66 c7 45 24 65 72    	movw   $0x7265,0x24(%rbp)
  402600:	c6 45 26 00          	movb   $0x0,0x26(%rbp)
  402604:	89 df                	mov    %ebx,%edi
  402606:	e8 b5 e7 ff ff       	callq  400dc0 <close@plt>
  40260b:	b8 ff ff ff ff       	mov    $0xffffffff,%eax
  402610:	e9 e0 fe ff ff       	jmpq   4024f5 <submitr+0x2c9>
  402615:	48 b8 45 72 72 6f 72 	movabs $0x52203a726f727245,%rax
  40261c:	3a 20 52 
  40261f:	48 ba 65 73 75 6c 74 	movabs $0x747320746c757365,%rdx
  402626:	20 73 74 
  402629:	48 89 45 00          	mov    %rax,0x0(%rbp)
  40262d:	48 89 55 08          	mov    %rdx,0x8(%rbp)
  402631:	48 b8 72 69 6e 67 20 	movabs $0x6f6f7420676e6972,%rax
  402638:	74 6f 6f 
  40263b:	48 ba 20 6c 61 72 67 	movabs $0x202e656772616c20,%rdx
  402642:	65 2e 20 
  402645:	48 89 45 10          	mov    %rax,0x10(%rbp)
  402649:	48 89 55 18          	mov    %rdx,0x18(%rbp)
  40264d:	48 b8 49 6e 63 72 65 	movabs $0x6573616572636e49,%rax
  402654:	61 73 65 
  402657:	48 ba 20 53 55 42 4d 	movabs $0x5254494d42555320,%rdx
  40265e:	49 54 52 
  402661:	48 89 45 20          	mov    %rax,0x20(%rbp)
  402665:	48 89 55 28          	mov    %rdx,0x28(%rbp)
  402669:	48 b8 5f 4d 41 58 42 	movabs $0x46554258414d5f,%rax
  402670:	55 46 00 
  402673:	48 89 45 30          	mov    %rax,0x30(%rbp)
  402677:	89 df                	mov    %ebx,%edi
  402679:	e8 42 e7 ff ff       	callq  400dc0 <close@plt>
  40267e:	b8 ff ff ff ff       	mov    $0xffffffff,%eax
  402683:	e9 6d fe ff ff       	jmpq   4024f5 <submitr+0x2c9>
  402688:	48 b8 45 72 72 6f 72 	movabs $0x52203a726f727245,%rax
  40268f:	3a 20 52 
  402692:	48 ba 65 73 75 6c 74 	movabs $0x747320746c757365,%rdx
  402699:	20 73 74 
  40269c:	48 89 45 00          	mov    %rax,0x0(%rbp)
  4026a0:	48 89 55 08          	mov    %rdx,0x8(%rbp)
  4026a4:	48 b8 72 69 6e 67 20 	movabs $0x6e6f6320676e6972,%rax
  4026ab:	63 6f 6e 
  4026ae:	48 ba 74 61 69 6e 73 	movabs $0x6e6120736e696174,%rdx
  4026b5:	20 61 6e 
  4026b8:	48 89 45 10          	mov    %rax,0x10(%rbp)
  4026bc:	48 89 55 18          	mov    %rdx,0x18(%rbp)
  4026c0:	48 b8 20 69 6c 6c 65 	movabs $0x6c6167656c6c6920,%rax
  4026c7:	67 61 6c 
  4026ca:	48 ba 20 6f 72 20 75 	movabs $0x72706e7520726f20,%rdx
  4026d1:	6e 70 72 
  4026d4:	48 89 45 20          	mov    %rax,0x20(%rbp)
  4026d8:	48 89 55 28          	mov    %rdx,0x28(%rbp)
  4026dc:	48 b8 69 6e 74 61 62 	movabs $0x20656c6261746e69,%rax
  4026e3:	6c 65 20 
  4026e6:	48 ba 63 68 61 72 61 	movabs $0x6574636172616863,%rdx
  4026ed:	63 74 65 
  4026f0:	48 89 45 30          	mov    %rax,0x30(%rbp)
  4026f4:	48 89 55 38          	mov    %rdx,0x38(%rbp)
  4026f8:	66 c7 45 40 72 2e    	movw   $0x2e72,0x40(%rbp)
  4026fe:	c6 45 42 00          	movb   $0x0,0x42(%rbp)
  402702:	89 df                	mov    %ebx,%edi
  402704:	e8 b7 e6 ff ff       	callq  400dc0 <close@plt>
  402709:	b8 ff ff ff ff       	mov    $0xffffffff,%eax
  40270e:	e9 e2 fd ff ff       	jmpq   4024f5 <submitr+0x2c9>
  402713:	48 b8 45 72 72 6f 72 	movabs $0x43203a726f727245,%rax
  40271a:	3a 20 43 
  40271d:	48 ba 6c 69 65 6e 74 	movabs $0x6e7520746e65696c,%rdx
  402724:	20 75 6e 
  402727:	48 89 45 00          	mov    %rax,0x0(%rbp)
  40272b:	48 89 55 08          	mov    %rdx,0x8(%rbp)
  40272f:	48 b8 61 62 6c 65 20 	movabs $0x206f7420656c6261,%rax
  402736:	74 6f 20 
  402739:	48 ba 77 72 69 74 65 	movabs $0x6f74206574697277,%rdx
  402740:	20 74 6f 
  402743:	48 89 45 10          	mov    %rax,0x10(%rbp)
  402747:	48 89 55 18          	mov    %rdx,0x18(%rbp)
  40274b:	48 b8 20 74 68 65 20 	movabs $0x7365722065687420,%rax
  402752:	72 65 73 
  402755:	48 ba 75 6c 74 20 73 	movabs $0x7672657320746c75,%rdx
  40275c:	65 72 76 
  40275f:	48 89 45 20          	mov    %rax,0x20(%rbp)
  402763:	48 89 55 28          	mov    %rdx,0x28(%rbp)
  402767:	66 c7 45 30 65 72    	movw   $0x7265,0x30(%rbp)
  40276d:	c6 45 32 00          	movb   $0x0,0x32(%rbp)
  402771:	89 df                	mov    %ebx,%edi
  402773:	e8 48 e6 ff ff       	callq  400dc0 <close@plt>
  402778:	b8 ff ff ff ff       	mov    $0xffffffff,%eax
  40277d:	e9 73 fd ff ff       	jmpq   4024f5 <submitr+0x2c9>
  402782:	48 b8 45 72 72 6f 72 	movabs $0x43203a726f727245,%rax
  402789:	3a 20 43 
  40278c:	48 ba 6c 69 65 6e 74 	movabs $0x6e7520746e65696c,%rdx
  402793:	20 75 6e 
  402796:	48 89 45 00          	mov    %rax,0x0(%rbp)
  40279a:	48 89 55 08          	mov    %rdx,0x8(%rbp)
  40279e:	48 b8 61 62 6c 65 20 	movabs $0x206f7420656c6261,%rax
  4027a5:	74 6f 20 
  4027a8:	48 ba 72 65 61 64 20 	movabs $0x7269662064616572,%rdx
  4027af:	66 69 72 
  4027b2:	48 89 45 10          	mov    %rax,0x10(%rbp)
  4027b6:	48 89 55 18          	mov    %rdx,0x18(%rbp)
  4027ba:	48 b8 73 74 20 68 65 	movabs $0x6564616568207473,%rax
  4027c1:	61 64 65 
  4027c4:	48 ba 72 20 66 72 6f 	movabs $0x72206d6f72662072,%rdx
  4027cb:	6d 20 72 
  4027ce:	48 89 45 20          	mov    %rax,0x20(%rbp)
  4027d2:	48 89 55 28          	mov    %rdx,0x28(%rbp)
  4027d6:	48 b8 65 73 75 6c 74 	movabs $0x657320746c757365,%rax
  4027dd:	20 73 65 
  4027e0:	48 89 45 30          	mov    %rax,0x30(%rbp)
  4027e4:	c7 45 38 72 76 65 72 	movl   $0x72657672,0x38(%rbp)
  4027eb:	c6 45 3c 00          	movb   $0x0,0x3c(%rbp)
  4027ef:	89 df                	mov    %ebx,%edi
  4027f1:	e8 ca e5 ff ff       	callq  400dc0 <close@plt>
  4027f6:	b8 ff ff ff ff       	mov    $0xffffffff,%eax
  4027fb:	e9 f5 fc ff ff       	jmpq   4024f5 <submitr+0x2c9>
  402800:	ba 00 20 00 00       	mov    $0x2000,%edx
  402805:	48 8d b4 24 20 60 00 	lea    0x6020(%rsp),%rsi
  40280c:	00 
  40280d:	48 8d bc 24 20 80 00 	lea    0x8020(%rsp),%rdi
  402814:	00 
  402815:	e8 93 f9 ff ff       	callq  4021ad <rio_readlineb>
  40281a:	48 85 c0             	test   %rax,%rax
  40281d:	0f 8e 91 00 00 00    	jle    4028b4 <submitr+0x688>
  402823:	8b 94 24 1c 20 00 00 	mov    0x201c(%rsp),%edx
  40282a:	81 fa c8 00 00 00    	cmp    $0xc8,%edx
  402830:	0f 85 02 01 00 00    	jne    402938 <submitr+0x70c>
  402836:	48 8d b4 24 20 60 00 	lea    0x6020(%rsp),%rsi
  40283d:	00 
  40283e:	48 89 ef             	mov    %rbp,%rdi
  402841:	e8 0a e5 ff ff       	callq  400d50 <strcpy@plt>
  402846:	89 df                	mov    %ebx,%edi
  402848:	e8 73 e5 ff ff       	callq  400dc0 <close@plt>
  40284d:	bf 60 34 40 00       	mov    $0x403460,%edi
  402852:	b9 04 00 00 00       	mov    $0x4,%ecx
  402857:	48 89 ee             	mov    %rbp,%rsi
  40285a:	f3 a6                	repz cmpsb %es:(%rdi),%ds:(%rsi)
  40285c:	0f 97 c0             	seta   %al
  40285f:	1c 00                	sbb    $0x0,%al
  402861:	0f be c0             	movsbl %al,%eax
  402864:	85 c0                	test   %eax,%eax
  402866:	0f 84 89 fc ff ff    	je     4024f5 <submitr+0x2c9>
  40286c:	bf 64 34 40 00       	mov    $0x403464,%edi
  402871:	b9 05 00 00 00       	mov    $0x5,%ecx
  402876:	48 89 ee             	mov    %rbp,%rsi
  402879:	f3 a6                	repz cmpsb %es:(%rdi),%ds:(%rsi)
  40287b:	0f 97 c0             	seta   %al
  40287e:	1c 00                	sbb    $0x0,%al
  402880:	0f be c0             	movsbl %al,%eax
  402883:	85 c0                	test   %eax,%eax
  402885:	0f 84 6a fc ff ff    	je     4024f5 <submitr+0x2c9>
  40288b:	bf 69 34 40 00       	mov    $0x403469,%edi
  402890:	b9 03 00 00 00       	mov    $0x3,%ecx
  402895:	48 89 ee             	mov    %rbp,%rsi
  402898:	f3 a6                	repz cmpsb %es:(%rdi),%ds:(%rsi)
  40289a:	0f 97 c0             	seta   %al
  40289d:	1c 00                	sbb    $0x0,%al
  40289f:	0f be c0             	movsbl %al,%eax
  4028a2:	85 c0                	test   %eax,%eax
  4028a4:	0f 84 4b fc ff ff    	je     4024f5 <submitr+0x2c9>
  4028aa:	b8 ff ff ff ff       	mov    $0xffffffff,%eax
  4028af:	e9 41 fc ff ff       	jmpq   4024f5 <submitr+0x2c9>
  4028b4:	48 b8 45 72 72 6f 72 	movabs $0x43203a726f727245,%rax
  4028bb:	3a 20 43 
  4028be:	48 ba 6c 69 65 6e 74 	movabs $0x6e7520746e65696c,%rdx
  4028c5:	20 75 6e 
  4028c8:	48 89 45 00          	mov    %rax,0x0(%rbp)
  4028cc:	48 89 55 08          	mov    %rdx,0x8(%rbp)
  4028d0:	48 b8 61 62 6c 65 20 	movabs $0x206f7420656c6261,%rax
  4028d7:	74 6f 20 
  4028da:	48 ba 72 65 61 64 20 	movabs $0x6174732064616572,%rdx
  4028e1:	73 74 61 
  4028e4:	48 89 45 10          	mov    %rax,0x10(%rbp)
  4028e8:	48 89 55 18          	mov    %rdx,0x18(%rbp)
  4028ec:	48 b8 74 75 73 20 6d 	movabs $0x7373656d20737574,%rax
  4028f3:	65 73 73 
  4028f6:	48 ba 61 67 65 20 66 	movabs $0x6d6f726620656761,%rdx
  4028fd:	72 6f 6d 
  402900:	48 89 45 20          	mov    %rax,0x20(%rbp)
  402904:	48 89 55 28          	mov    %rdx,0x28(%rbp)
  402908:	48 b8 20 72 65 73 75 	movabs $0x20746c7573657220,%rax
  40290f:	6c 74 20 
  402912:	48 89 45 30          	mov    %rax,0x30(%rbp)
  402916:	c7 45 38 73 65 72 76 	movl   $0x76726573,0x38(%rbp)
  40291d:	66 c7 45 3c 65 72    	movw   $0x7265,0x3c(%rbp)
  402923:	c6 45 3e 00          	movb   $0x0,0x3e(%rbp)
  402927:	89 df                	mov    %ebx,%edi
  402929:	e8 92 e4 ff ff       	callq  400dc0 <close@plt>
  40292e:	b8 ff ff ff ff       	mov    $0xffffffff,%eax
  402933:	e9 bd fb ff ff       	jmpq   4024f5 <submitr+0x2c9>
  402938:	48 8d 4c 24 10       	lea    0x10(%rsp),%rcx
  40293d:	be 18 34 40 00       	mov    $0x403418,%esi
  402942:	48 89 ef             	mov    %rbp,%rdi
  402945:	b8 00 00 00 00       	mov    $0x0,%eax
  40294a:	e8 81 e5 ff ff       	callq  400ed0 <sprintf@plt>
  40294f:	89 df                	mov    %ebx,%edi
  402951:	e8 6a e4 ff ff       	callq  400dc0 <close@plt>
  402956:	b8 ff ff ff ff       	mov    $0xffffffff,%eax
  40295b:	e9 95 fb ff ff       	jmpq   4024f5 <submitr+0x2c9>

0000000000402960 <init_timeout>:
  402960:	85 ff                	test   %edi,%edi
  402962:	74 26                	je     40298a <init_timeout+0x2a>
  402964:	53                   	push   %rbx
  402965:	89 fb                	mov    %edi,%ebx
  402967:	85 ff                	test   %edi,%edi
  402969:	78 18                	js     402983 <init_timeout+0x23>
  40296b:	be c0 1f 40 00       	mov    $0x401fc0,%esi
  402970:	bf 0e 00 00 00       	mov    $0xe,%edi
  402975:	e8 66 e4 ff ff       	callq  400de0 <signal@plt>
  40297a:	89 df                	mov    %ebx,%edi
  40297c:	e8 2f e4 ff ff       	callq  400db0 <alarm@plt>
  402981:	5b                   	pop    %rbx
  402982:	c3                   	retq   
  402983:	bb 00 00 00 00       	mov    $0x0,%ebx
  402988:	eb e1                	jmp    40296b <init_timeout+0xb>
  40298a:	f3 c3                	repz retq 

000000000040298c <init_driver>:
  40298c:	55                   	push   %rbp
  40298d:	53                   	push   %rbx
  40298e:	48 83 ec 18          	sub    $0x18,%rsp
  402992:	48 89 fd             	mov    %rdi,%rbp
  402995:	be 01 00 00 00       	mov    $0x1,%esi
  40299a:	bf 0d 00 00 00       	mov    $0xd,%edi
  40299f:	e8 3c e4 ff ff       	callq  400de0 <signal@plt>
  4029a4:	be 01 00 00 00       	mov    $0x1,%esi
  4029a9:	bf 1d 00 00 00       	mov    $0x1d,%edi
  4029ae:	e8 2d e4 ff ff       	callq  400de0 <signal@plt>
  4029b3:	be 01 00 00 00       	mov    $0x1,%esi
  4029b8:	bf 1d 00 00 00       	mov    $0x1d,%edi
  4029bd:	e8 1e e4 ff ff       	callq  400de0 <signal@plt>
  4029c2:	ba 00 00 00 00       	mov    $0x0,%edx
  4029c7:	be 01 00 00 00       	mov    $0x1,%esi
  4029cc:	bf 02 00 00 00       	mov    $0x2,%edi
  4029d1:	e8 2a e5 ff ff       	callq  400f00 <socket@plt>
  4029d6:	85 c0                	test   %eax,%eax
  4029d8:	78 7c                	js     402a56 <init_driver+0xca>
  4029da:	89 c3                	mov    %eax,%ebx
  4029dc:	bf 6c 34 40 00       	mov    $0x40346c,%edi
  4029e1:	e8 0a e4 ff ff       	callq  400df0 <gethostbyname@plt>
  4029e6:	48 85 c0             	test   %rax,%rax
  4029e9:	0f 84 b3 00 00 00    	je     402aa2 <init_driver+0x116>
  4029ef:	48 c7 04 24 00 00 00 	movq   $0x0,(%rsp)
  4029f6:	00 
  4029f7:	48 c7 44 24 08 00 00 	movq   $0x0,0x8(%rsp)
  4029fe:	00 00 
  402a00:	66 c7 04 24 02 00    	movw   $0x2,(%rsp)
  402a06:	48 8b 48 18          	mov    0x18(%rax),%rcx
  402a0a:	48 63 50 14          	movslq 0x14(%rax),%rdx
  402a0e:	48 8d 74 24 04       	lea    0x4(%rsp),%rsi
  402a13:	48 8b 39             	mov    (%rcx),%rdi
  402a16:	e8 65 e4 ff ff       	callq  400e80 <bcopy@plt>
  402a1b:	66 c7 44 24 02 3c 9a 	movw   $0x9a3c,0x2(%rsp)
  402a22:	ba 10 00 00 00       	mov    $0x10,%edx
  402a27:	48 89 e6             	mov    %rsp,%rsi
  402a2a:	89 df                	mov    %ebx,%edi
  402a2c:	e8 bf e4 ff ff       	callq  400ef0 <connect@plt>
  402a31:	85 c0                	test   %eax,%eax
  402a33:	0f 88 d1 00 00 00    	js     402b0a <init_driver+0x17e>
  402a39:	89 df                	mov    %ebx,%edi
  402a3b:	e8 80 e3 ff ff       	callq  400dc0 <close@plt>
  402a40:	66 c7 45 00 4f 4b    	movw   $0x4b4f,0x0(%rbp)
  402a46:	c6 45 02 00          	movb   $0x0,0x2(%rbp)
  402a4a:	b8 00 00 00 00       	mov    $0x0,%eax
  402a4f:	48 83 c4 18          	add    $0x18,%rsp
  402a53:	5b                   	pop    %rbx
  402a54:	5d                   	pop    %rbp
  402a55:	c3                   	retq   
  402a56:	48 b8 45 72 72 6f 72 	movabs $0x43203a726f727245,%rax
  402a5d:	3a 20 43 
  402a60:	48 ba 6c 69 65 6e 74 	movabs $0x6e7520746e65696c,%rdx
  402a67:	20 75 6e 
  402a6a:	48 89 45 00          	mov    %rax,0x0(%rbp)
  402a6e:	48 89 55 08          	mov    %rdx,0x8(%rbp)
  402a72:	48 b8 61 62 6c 65 20 	movabs $0x206f7420656c6261,%rax
  402a79:	74 6f 20 
  402a7c:	48 ba 63 72 65 61 74 	movabs $0x7320657461657263,%rdx
  402a83:	65 20 73 
  402a86:	48 89 45 10          	mov    %rax,0x10(%rbp)
  402a8a:	48 89 55 18          	mov    %rdx,0x18(%rbp)
  402a8e:	c7 45 20 6f 63 6b 65 	movl   $0x656b636f,0x20(%rbp)
  402a95:	66 c7 45 24 74 00    	movw   $0x74,0x24(%rbp)
  402a9b:	b8 ff ff ff ff       	mov    $0xffffffff,%eax
  402aa0:	eb ad                	jmp    402a4f <init_driver+0xc3>
  402aa2:	48 b8 45 72 72 6f 72 	movabs $0x44203a726f727245,%rax
  402aa9:	3a 20 44 
  402aac:	48 ba 4e 53 20 69 73 	movabs $0x6e7520736920534e,%rdx
  402ab3:	20 75 6e 
  402ab6:	48 89 45 00          	mov    %rax,0x0(%rbp)
  402aba:	48 89 55 08          	mov    %rdx,0x8(%rbp)
  402abe:	48 b8 61 62 6c 65 20 	movabs $0x206f7420656c6261,%rax
  402ac5:	74 6f 20 
  402ac8:	48 ba 72 65 73 6f 6c 	movabs $0x2065766c6f736572,%rdx
  402acf:	76 65 20 
  402ad2:	48 89 45 10          	mov    %rax,0x10(%rbp)
  402ad6:	48 89 55 18          	mov    %rdx,0x18(%rbp)
  402ada:	48 b8 73 65 72 76 65 	movabs $0x6120726576726573,%rax
  402ae1:	72 20 61 
  402ae4:	48 89 45 20          	mov    %rax,0x20(%rbp)
  402ae8:	c7 45 28 64 64 72 65 	movl   $0x65726464,0x28(%rbp)
  402aef:	66 c7 45 2c 73 73    	movw   $0x7373,0x2c(%rbp)
  402af5:	c6 45 2e 00          	movb   $0x0,0x2e(%rbp)
  402af9:	89 df                	mov    %ebx,%edi
  402afb:	e8 c0 e2 ff ff       	callq  400dc0 <close@plt>
  402b00:	b8 ff ff ff ff       	mov    $0xffffffff,%eax
  402b05:	e9 45 ff ff ff       	jmpq   402a4f <init_driver+0xc3>
  402b0a:	48 b8 45 72 72 6f 72 	movabs $0x55203a726f727245,%rax
  402b11:	3a 20 55 
  402b14:	48 ba 6e 61 62 6c 65 	movabs $0x6f7420656c62616e,%rdx
  402b1b:	20 74 6f 
  402b1e:	48 89 45 00          	mov    %rax,0x0(%rbp)
  402b22:	48 89 55 08          	mov    %rdx,0x8(%rbp)
  402b26:	48 b8 20 63 6f 6e 6e 	movabs $0x7463656e6e6f6320,%rax
  402b2d:	65 63 74 
  402b30:	48 ba 20 74 6f 20 73 	movabs $0x76726573206f7420,%rdx
  402b37:	65 72 76 
  402b3a:	48 89 45 10          	mov    %rax,0x10(%rbp)
  402b3e:	48 89 55 18          	mov    %rdx,0x18(%rbp)
  402b42:	66 c7 45 20 65 72    	movw   $0x7265,0x20(%rbp)
  402b48:	c6 45 22 00          	movb   $0x0,0x22(%rbp)
  402b4c:	89 df                	mov    %ebx,%edi
  402b4e:	e8 6d e2 ff ff       	callq  400dc0 <close@plt>
  402b53:	b8 ff ff ff ff       	mov    $0xffffffff,%eax
  402b58:	e9 f2 fe ff ff       	jmpq   402a4f <init_driver+0xc3>

0000000000402b5d <driver_post>:
  402b5d:	53                   	push   %rbx
  402b5e:	4c 89 cb             	mov    %r9,%rbx
  402b61:	45 85 c0             	test   %r8d,%r8d
  402b64:	75 18                	jne    402b7e <driver_post+0x21>
  402b66:	48 85 ff             	test   %rdi,%rdi
  402b69:	74 05                	je     402b70 <driver_post+0x13>
  402b6b:	80 3f 00             	cmpb   $0x0,(%rdi)
  402b6e:	75 30                	jne    402ba0 <driver_post+0x43>
  402b70:	66 c7 03 4f 4b       	movw   $0x4b4f,(%rbx)
  402b75:	c6 43 02 00          	movb   $0x0,0x2(%rbx)
  402b79:	44 89 c0             	mov    %r8d,%eax
  402b7c:	5b                   	pop    %rbx
  402b7d:	c3                   	retq   
  402b7e:	48 89 ce             	mov    %rcx,%rsi
  402b81:	bf 79 34 40 00       	mov    $0x403479,%edi
  402b86:	b8 00 00 00 00       	mov    $0x0,%eax
  402b8b:	e8 00 e2 ff ff       	callq  400d90 <printf@plt>
  402b90:	66 c7 03 4f 4b       	movw   $0x4b4f,(%rbx)
  402b95:	c6 43 02 00          	movb   $0x0,0x2(%rbx)
  402b99:	b8 00 00 00 00       	mov    $0x0,%eax
  402b9e:	eb dc                	jmp    402b7c <driver_post+0x1f>
  402ba0:	48 83 ec 08          	sub    $0x8,%rsp
  402ba4:	41 51                	push   %r9
  402ba6:	49 89 c9             	mov    %rcx,%r9
  402ba9:	49 89 d0             	mov    %rdx,%r8
  402bac:	48 89 f9             	mov    %rdi,%rcx
  402baf:	48 89 f2             	mov    %rsi,%rdx
  402bb2:	be 9a 3c 00 00       	mov    $0x3c9a,%esi
  402bb7:	bf 6c 34 40 00       	mov    $0x40346c,%edi
  402bbc:	e8 6b f6 ff ff       	callq  40222c <submitr>
  402bc1:	48 83 c4 10          	add    $0x10,%rsp
  402bc5:	eb b5                	jmp    402b7c <driver_post+0x1f>

0000000000402bc7 <check>:
  402bc7:	89 f8                	mov    %edi,%eax
  402bc9:	c1 e8 1c             	shr    $0x1c,%eax
  402bcc:	85 c0                	test   %eax,%eax
  402bce:	74 1d                	je     402bed <check+0x26>
  402bd0:	b9 00 00 00 00       	mov    $0x0,%ecx
  402bd5:	83 f9 1f             	cmp    $0x1f,%ecx
  402bd8:	7f 0d                	jg     402be7 <check+0x20>
  402bda:	89 f8                	mov    %edi,%eax
  402bdc:	d3 e8                	shr    %cl,%eax
  402bde:	3c 0a                	cmp    $0xa,%al
  402be0:	74 11                	je     402bf3 <check+0x2c>
  402be2:	83 c1 08             	add    $0x8,%ecx
  402be5:	eb ee                	jmp    402bd5 <check+0xe>
  402be7:	b8 01 00 00 00       	mov    $0x1,%eax
  402bec:	c3                   	retq   
  402bed:	b8 00 00 00 00       	mov    $0x0,%eax
  402bf2:	c3                   	retq   
  402bf3:	b8 00 00 00 00       	mov    $0x0,%eax
  402bf8:	c3                   	retq   

0000000000402bf9 <gencookie>:
  402bf9:	53                   	push   %rbx
  402bfa:	83 c7 01             	add    $0x1,%edi
  402bfd:	e8 2e e1 ff ff       	callq  400d30 <srandom@plt>
  402c02:	e8 39 e2 ff ff       	callq  400e40 <random@plt>
  402c07:	89 c3                	mov    %eax,%ebx
  402c09:	89 c7                	mov    %eax,%edi
  402c0b:	e8 b7 ff ff ff       	callq  402bc7 <check>
  402c10:	85 c0                	test   %eax,%eax
  402c12:	74 ee                	je     402c02 <gencookie+0x9>
  402c14:	89 d8                	mov    %ebx,%eax
  402c16:	5b                   	pop    %rbx
  402c17:	c3                   	retq   
  402c18:	0f 1f 84 00 00 00 00 	nopl   0x0(%rax,%rax,1)
  402c1f:	00 

0000000000402c20 <__libc_csu_init>:
  402c20:	41 57                	push   %r15
  402c22:	41 56                	push   %r14
  402c24:	49 89 d7             	mov    %rdx,%r15
  402c27:	41 55                	push   %r13
  402c29:	41 54                	push   %r12
  402c2b:	4c 8d 25 ce 11 20 00 	lea    0x2011ce(%rip),%r12        # 603e00 <__frame_dummy_init_array_entry>
  402c32:	55                   	push   %rbp
  402c33:	48 8d 2d ce 11 20 00 	lea    0x2011ce(%rip),%rbp        # 603e08 <__init_array_end>
  402c3a:	53                   	push   %rbx
  402c3b:	41 89 fd             	mov    %edi,%r13d
  402c3e:	49 89 f6             	mov    %rsi,%r14
  402c41:	4c 29 e5             	sub    %r12,%rbp
  402c44:	48 83 ec 08          	sub    $0x8,%rsp
  402c48:	48 c1 fd 03          	sar    $0x3,%rbp
  402c4c:	e8 97 e0 ff ff       	callq  400ce8 <_init>
  402c51:	48 85 ed             	test   %rbp,%rbp
  402c54:	74 20                	je     402c76 <__libc_csu_init+0x56>
  402c56:	31 db                	xor    %ebx,%ebx
  402c58:	0f 1f 84 00 00 00 00 	nopl   0x0(%rax,%rax,1)
  402c5f:	00 
  402c60:	4c 89 fa             	mov    %r15,%rdx
  402c63:	4c 89 f6             	mov    %r14,%rsi
  402c66:	44 89 ef             	mov    %r13d,%edi
  402c69:	41 ff 14 dc          	callq  *(%r12,%rbx,8)
  402c6d:	48 83 c3 01          	add    $0x1,%rbx
  402c71:	48 39 dd             	cmp    %rbx,%rbp
  402c74:	75 ea                	jne    402c60 <__libc_csu_init+0x40>
  402c76:	48 83 c4 08          	add    $0x8,%rsp
  402c7a:	5b                   	pop    %rbx
  402c7b:	5d                   	pop    %rbp
  402c7c:	41 5c                	pop    %r12
  402c7e:	41 5d                	pop    %r13
  402c80:	41 5e                	pop    %r14
  402c82:	41 5f                	pop    %r15
  402c84:	c3                   	retq   
  402c85:	66 66 2e 0f 1f 84 00 	data16 nopw %cs:0x0(%rax,%rax,1)
  402c8c:	00 00 00 00 

0000000000402c90 <__libc_csu_fini>:
  402c90:	f3 c3                	repz retq 

Disassembly of section .fini:

0000000000402c94 <_fini>:
  402c94:	48 83 ec 08          	sub    $0x8,%rsp
  402c98:	48 83 c4 08          	add    $0x8,%rsp
  402c9c:	c3                   	retq   
