
rtarget:     file format elf64-x86-64


Disassembly of section .init:

0000000000400ce8 <_init>:
  400ce8:	48 83 ec 08          	sub    $0x8,%rsp
  400cec:	48 8b 05 05 43 20 00 	mov    0x204305(%rip),%rax        # 604ff8 <__gmon_start__>
  400cf3:	48 85 c0             	test   %rax,%rax
  400cf6:	74 02                	je     400cfa <_init+0x12>
  400cf8:	ff d0                	callq  *%rax
  400cfa:	48 83 c4 08          	add    $0x8,%rsp
  400cfe:	c3                   	retq   

Disassembly of section .plt:

0000000000400d00 <.plt>:
  400d00:	ff 35 02 43 20 00    	pushq  0x204302(%rip)        # 605008 <_GLOBAL_OFFSET_TABLE_+0x8>
  400d06:	ff 25 04 43 20 00    	jmpq   *0x204304(%rip)        # 605010 <_GLOBAL_OFFSET_TABLE_+0x10>
  400d0c:	0f 1f 40 00          	nopl   0x0(%rax)

0000000000400d10 <strcasecmp@plt>:
  400d10:	ff 25 02 43 20 00    	jmpq   *0x204302(%rip)        # 605018 <strcasecmp@GLIBC_2.2.5>
  400d16:	68 00 00 00 00       	pushq  $0x0
  400d1b:	e9 e0 ff ff ff       	jmpq   400d00 <.plt>

0000000000400d20 <__errno_location@plt>:
  400d20:	ff 25 fa 42 20 00    	jmpq   *0x2042fa(%rip)        # 605020 <__errno_location@GLIBC_2.2.5>
  400d26:	68 01 00 00 00       	pushq  $0x1
  400d2b:	e9 d0 ff ff ff       	jmpq   400d00 <.plt>

0000000000400d30 <srandom@plt>:
  400d30:	ff 25 f2 42 20 00    	jmpq   *0x2042f2(%rip)        # 605028 <srandom@GLIBC_2.2.5>
  400d36:	68 02 00 00 00       	pushq  $0x2
  400d3b:	e9 c0 ff ff ff       	jmpq   400d00 <.plt>

0000000000400d40 <strncmp@plt>:
  400d40:	ff 25 ea 42 20 00    	jmpq   *0x2042ea(%rip)        # 605030 <strncmp@GLIBC_2.2.5>
  400d46:	68 03 00 00 00       	pushq  $0x3
  400d4b:	e9 b0 ff ff ff       	jmpq   400d00 <.plt>

0000000000400d50 <strcpy@plt>:
  400d50:	ff 25 e2 42 20 00    	jmpq   *0x2042e2(%rip)        # 605038 <strcpy@GLIBC_2.2.5>
  400d56:	68 04 00 00 00       	pushq  $0x4
  400d5b:	e9 a0 ff ff ff       	jmpq   400d00 <.plt>

0000000000400d60 <puts@plt>:
  400d60:	ff 25 da 42 20 00    	jmpq   *0x2042da(%rip)        # 605040 <puts@GLIBC_2.2.5>
  400d66:	68 05 00 00 00       	pushq  $0x5
  400d6b:	e9 90 ff ff ff       	jmpq   400d00 <.plt>

0000000000400d70 <write@plt>:
  400d70:	ff 25 d2 42 20 00    	jmpq   *0x2042d2(%rip)        # 605048 <write@GLIBC_2.2.5>
  400d76:	68 06 00 00 00       	pushq  $0x6
  400d7b:	e9 80 ff ff ff       	jmpq   400d00 <.plt>

0000000000400d80 <mmap@plt>:
  400d80:	ff 25 ca 42 20 00    	jmpq   *0x2042ca(%rip)        # 605050 <mmap@GLIBC_2.2.5>
  400d86:	68 07 00 00 00       	pushq  $0x7
  400d8b:	e9 70 ff ff ff       	jmpq   400d00 <.plt>

0000000000400d90 <printf@plt>:
  400d90:	ff 25 c2 42 20 00    	jmpq   *0x2042c2(%rip)        # 605058 <printf@GLIBC_2.2.5>
  400d96:	68 08 00 00 00       	pushq  $0x8
  400d9b:	e9 60 ff ff ff       	jmpq   400d00 <.plt>

0000000000400da0 <memset@plt>:
  400da0:	ff 25 ba 42 20 00    	jmpq   *0x2042ba(%rip)        # 605060 <memset@GLIBC_2.2.5>
  400da6:	68 09 00 00 00       	pushq  $0x9
  400dab:	e9 50 ff ff ff       	jmpq   400d00 <.plt>

0000000000400db0 <alarm@plt>:
  400db0:	ff 25 b2 42 20 00    	jmpq   *0x2042b2(%rip)        # 605068 <alarm@GLIBC_2.2.5>
  400db6:	68 0a 00 00 00       	pushq  $0xa
  400dbb:	e9 40 ff ff ff       	jmpq   400d00 <.plt>

0000000000400dc0 <close@plt>:
  400dc0:	ff 25 aa 42 20 00    	jmpq   *0x2042aa(%rip)        # 605070 <close@GLIBC_2.2.5>
  400dc6:	68 0b 00 00 00       	pushq  $0xb
  400dcb:	e9 30 ff ff ff       	jmpq   400d00 <.plt>

0000000000400dd0 <read@plt>:
  400dd0:	ff 25 a2 42 20 00    	jmpq   *0x2042a2(%rip)        # 605078 <read@GLIBC_2.2.5>
  400dd6:	68 0c 00 00 00       	pushq  $0xc
  400ddb:	e9 20 ff ff ff       	jmpq   400d00 <.plt>

0000000000400de0 <signal@plt>:
  400de0:	ff 25 9a 42 20 00    	jmpq   *0x20429a(%rip)        # 605080 <signal@GLIBC_2.2.5>
  400de6:	68 0d 00 00 00       	pushq  $0xd
  400deb:	e9 10 ff ff ff       	jmpq   400d00 <.plt>

0000000000400df0 <gethostbyname@plt>:
  400df0:	ff 25 92 42 20 00    	jmpq   *0x204292(%rip)        # 605088 <gethostbyname@GLIBC_2.2.5>
  400df6:	68 0e 00 00 00       	pushq  $0xe
  400dfb:	e9 00 ff ff ff       	jmpq   400d00 <.plt>

0000000000400e00 <fprintf@plt>:
  400e00:	ff 25 8a 42 20 00    	jmpq   *0x20428a(%rip)        # 605090 <fprintf@GLIBC_2.2.5>
  400e06:	68 0f 00 00 00       	pushq  $0xf
  400e0b:	e9 f0 fe ff ff       	jmpq   400d00 <.plt>

0000000000400e10 <strtol@plt>:
  400e10:	ff 25 82 42 20 00    	jmpq   *0x204282(%rip)        # 605098 <strtol@GLIBC_2.2.5>
  400e16:	68 10 00 00 00       	pushq  $0x10
  400e1b:	e9 e0 fe ff ff       	jmpq   400d00 <.plt>

0000000000400e20 <memcpy@plt>:
  400e20:	ff 25 7a 42 20 00    	jmpq   *0x20427a(%rip)        # 6050a0 <memcpy@GLIBC_2.14>
  400e26:	68 11 00 00 00       	pushq  $0x11
  400e2b:	e9 d0 fe ff ff       	jmpq   400d00 <.plt>

0000000000400e30 <time@plt>:
  400e30:	ff 25 72 42 20 00    	jmpq   *0x204272(%rip)        # 6050a8 <time@GLIBC_2.2.5>
  400e36:	68 12 00 00 00       	pushq  $0x12
  400e3b:	e9 c0 fe ff ff       	jmpq   400d00 <.plt>

0000000000400e40 <random@plt>:
  400e40:	ff 25 6a 42 20 00    	jmpq   *0x20426a(%rip)        # 6050b0 <random@GLIBC_2.2.5>
  400e46:	68 13 00 00 00       	pushq  $0x13
  400e4b:	e9 b0 fe ff ff       	jmpq   400d00 <.plt>

0000000000400e50 <_IO_getc@plt>:
  400e50:	ff 25 62 42 20 00    	jmpq   *0x204262(%rip)        # 6050b8 <_IO_getc@GLIBC_2.2.5>
  400e56:	68 14 00 00 00       	pushq  $0x14
  400e5b:	e9 a0 fe ff ff       	jmpq   400d00 <.plt>

0000000000400e60 <__isoc99_sscanf@plt>:
  400e60:	ff 25 5a 42 20 00    	jmpq   *0x20425a(%rip)        # 6050c0 <__isoc99_sscanf@GLIBC_2.7>
  400e66:	68 15 00 00 00       	pushq  $0x15
  400e6b:	e9 90 fe ff ff       	jmpq   400d00 <.plt>

0000000000400e70 <munmap@plt>:
  400e70:	ff 25 52 42 20 00    	jmpq   *0x204252(%rip)        # 6050c8 <munmap@GLIBC_2.2.5>
  400e76:	68 16 00 00 00       	pushq  $0x16
  400e7b:	e9 80 fe ff ff       	jmpq   400d00 <.plt>

0000000000400e80 <bcopy@plt>:
  400e80:	ff 25 4a 42 20 00    	jmpq   *0x20424a(%rip)        # 6050d0 <bcopy@GLIBC_2.2.5>
  400e86:	68 17 00 00 00       	pushq  $0x17
  400e8b:	e9 70 fe ff ff       	jmpq   400d00 <.plt>

0000000000400e90 <fopen@plt>:
  400e90:	ff 25 42 42 20 00    	jmpq   *0x204242(%rip)        # 6050d8 <fopen@GLIBC_2.2.5>
  400e96:	68 18 00 00 00       	pushq  $0x18
  400e9b:	e9 60 fe ff ff       	jmpq   400d00 <.plt>

0000000000400ea0 <getopt@plt>:
  400ea0:	ff 25 3a 42 20 00    	jmpq   *0x20423a(%rip)        # 6050e0 <getopt@GLIBC_2.2.5>
  400ea6:	68 19 00 00 00       	pushq  $0x19
  400eab:	e9 50 fe ff ff       	jmpq   400d00 <.plt>

0000000000400eb0 <strtoul@plt>:
  400eb0:	ff 25 32 42 20 00    	jmpq   *0x204232(%rip)        # 6050e8 <strtoul@GLIBC_2.2.5>
  400eb6:	68 1a 00 00 00       	pushq  $0x1a
  400ebb:	e9 40 fe ff ff       	jmpq   400d00 <.plt>

0000000000400ec0 <gethostname@plt>:
  400ec0:	ff 25 2a 42 20 00    	jmpq   *0x20422a(%rip)        # 6050f0 <gethostname@GLIBC_2.2.5>
  400ec6:	68 1b 00 00 00       	pushq  $0x1b
  400ecb:	e9 30 fe ff ff       	jmpq   400d00 <.plt>

0000000000400ed0 <sprintf@plt>:
  400ed0:	ff 25 22 42 20 00    	jmpq   *0x204222(%rip)        # 6050f8 <sprintf@GLIBC_2.2.5>
  400ed6:	68 1c 00 00 00       	pushq  $0x1c
  400edb:	e9 20 fe ff ff       	jmpq   400d00 <.plt>

0000000000400ee0 <exit@plt>:
  400ee0:	ff 25 1a 42 20 00    	jmpq   *0x20421a(%rip)        # 605100 <exit@GLIBC_2.2.5>
  400ee6:	68 1d 00 00 00       	pushq  $0x1d
  400eeb:	e9 10 fe ff ff       	jmpq   400d00 <.plt>

0000000000400ef0 <connect@plt>:
  400ef0:	ff 25 12 42 20 00    	jmpq   *0x204212(%rip)        # 605108 <connect@GLIBC_2.2.5>
  400ef6:	68 1e 00 00 00       	pushq  $0x1e
  400efb:	e9 00 fe ff ff       	jmpq   400d00 <.plt>

0000000000400f00 <socket@plt>:
  400f00:	ff 25 0a 42 20 00    	jmpq   *0x20420a(%rip)        # 605110 <socket@GLIBC_2.2.5>
  400f06:	68 1f 00 00 00       	pushq  $0x1f
  400f0b:	e9 f0 fd ff ff       	jmpq   400d00 <.plt>

Disassembly of section .text:

0000000000400f10 <_start>:
  400f10:	31 ed                	xor    %ebp,%ebp
  400f12:	49 89 d1             	mov    %rdx,%r9
  400f15:	5e                   	pop    %rsi
  400f16:	48 89 e2             	mov    %rsp,%rdx
  400f19:	48 83 e4 f0          	and    $0xfffffffffffffff0,%rsp
  400f1d:	50                   	push   %rax
  400f1e:	54                   	push   %rsp
  400f1f:	49 c7 c0 b0 2d 40 00 	mov    $0x402db0,%r8
  400f26:	48 c7 c1 40 2d 40 00 	mov    $0x402d40,%rcx
  400f2d:	48 c7 c7 b0 11 40 00 	mov    $0x4011b0,%rdi
  400f34:	ff 15 b6 40 20 00    	callq  *0x2040b6(%rip)        # 604ff0 <__libc_start_main@GLIBC_2.2.5>
  400f3a:	f4                   	hlt    
  400f3b:	0f 1f 44 00 00       	nopl   0x0(%rax,%rax,1)

0000000000400f40 <deregister_tm_clones>:
  400f40:	55                   	push   %rbp
  400f41:	b8 90 54 60 00       	mov    $0x605490,%eax
  400f46:	48 3d 90 54 60 00    	cmp    $0x605490,%rax
  400f4c:	48 89 e5             	mov    %rsp,%rbp
  400f4f:	74 17                	je     400f68 <deregister_tm_clones+0x28>
  400f51:	b8 00 00 00 00       	mov    $0x0,%eax
  400f56:	48 85 c0             	test   %rax,%rax
  400f59:	74 0d                	je     400f68 <deregister_tm_clones+0x28>
  400f5b:	5d                   	pop    %rbp
  400f5c:	bf 90 54 60 00       	mov    $0x605490,%edi
  400f61:	ff e0                	jmpq   *%rax
  400f63:	0f 1f 44 00 00       	nopl   0x0(%rax,%rax,1)
  400f68:	5d                   	pop    %rbp
  400f69:	c3                   	retq   
  400f6a:	66 0f 1f 44 00 00    	nopw   0x0(%rax,%rax,1)

0000000000400f70 <register_tm_clones>:
  400f70:	be 90 54 60 00       	mov    $0x605490,%esi
  400f75:	55                   	push   %rbp
  400f76:	48 81 ee 90 54 60 00 	sub    $0x605490,%rsi
  400f7d:	48 89 e5             	mov    %rsp,%rbp
  400f80:	48 c1 fe 03          	sar    $0x3,%rsi
  400f84:	48 89 f0             	mov    %rsi,%rax
  400f87:	48 c1 e8 3f          	shr    $0x3f,%rax
  400f8b:	48 01 c6             	add    %rax,%rsi
  400f8e:	48 d1 fe             	sar    %rsi
  400f91:	74 15                	je     400fa8 <register_tm_clones+0x38>
  400f93:	b8 00 00 00 00       	mov    $0x0,%eax
  400f98:	48 85 c0             	test   %rax,%rax
  400f9b:	74 0b                	je     400fa8 <register_tm_clones+0x38>
  400f9d:	5d                   	pop    %rbp
  400f9e:	bf 90 54 60 00       	mov    $0x605490,%edi
  400fa3:	ff e0                	jmpq   *%rax
  400fa5:	0f 1f 00             	nopl   (%rax)
  400fa8:	5d                   	pop    %rbp
  400fa9:	c3                   	retq   
  400faa:	66 0f 1f 44 00 00    	nopw   0x0(%rax,%rax,1)

0000000000400fb0 <__do_global_dtors_aux>:
  400fb0:	80 3d 11 45 20 00 00 	cmpb   $0x0,0x204511(%rip)        # 6054c8 <completed.6998>
  400fb7:	75 17                	jne    400fd0 <__do_global_dtors_aux+0x20>
  400fb9:	55                   	push   %rbp
  400fba:	48 89 e5             	mov    %rsp,%rbp
  400fbd:	e8 7e ff ff ff       	callq  400f40 <deregister_tm_clones>
  400fc2:	c6 05 ff 44 20 00 01 	movb   $0x1,0x2044ff(%rip)        # 6054c8 <completed.6998>
  400fc9:	5d                   	pop    %rbp
  400fca:	c3                   	retq   
  400fcb:	0f 1f 44 00 00       	nopl   0x0(%rax,%rax,1)
  400fd0:	f3 c3                	repz retq 
  400fd2:	66 66 2e 0f 1f 84 00 	data16 nopw %cs:0x0(%rax,%rax,1)
  400fd9:	00 00 00 00 
  400fdd:	0f 1f 00             	nopl   (%rax)

0000000000400fe0 <frame_dummy>:
  400fe0:	55                   	push   %rbp
  400fe1:	48 89 e5             	mov    %rsp,%rbp
  400fe4:	5d                   	pop    %rbp
  400fe5:	eb 89                	jmp    400f70 <register_tm_clones>

0000000000400fe7 <usage>:
  400fe7:	48 83 ec 08          	sub    $0x8,%rsp
  400feb:	48 89 fe             	mov    %rdi,%rsi
  400fee:	83 3d 13 45 20 00 00 	cmpl   $0x0,0x204513(%rip)        # 605508 <is_checker>
  400ff5:	74 41                	je     401038 <usage+0x51>
  400ff7:	bf c8 2d 40 00       	mov    $0x402dc8,%edi
  400ffc:	b8 00 00 00 00       	mov    $0x0,%eax
  401001:	e8 8a fd ff ff       	callq  400d90 <printf@plt>
  401006:	bf 00 2e 40 00       	mov    $0x402e00,%edi
  40100b:	e8 50 fd ff ff       	callq  400d60 <puts@plt>
  401010:	bf 78 2f 40 00       	mov    $0x402f78,%edi
  401015:	e8 46 fd ff ff       	callq  400d60 <puts@plt>
  40101a:	bf 28 2e 40 00       	mov    $0x402e28,%edi
  40101f:	e8 3c fd ff ff       	callq  400d60 <puts@plt>
  401024:	bf 92 2f 40 00       	mov    $0x402f92,%edi
  401029:	e8 32 fd ff ff       	callq  400d60 <puts@plt>
  40102e:	bf 00 00 00 00       	mov    $0x0,%edi
  401033:	e8 a8 fe ff ff       	callq  400ee0 <exit@plt>
  401038:	bf ae 2f 40 00       	mov    $0x402fae,%edi
  40103d:	b8 00 00 00 00       	mov    $0x0,%eax
  401042:	e8 49 fd ff ff       	callq  400d90 <printf@plt>
  401047:	bf 50 2e 40 00       	mov    $0x402e50,%edi
  40104c:	e8 0f fd ff ff       	callq  400d60 <puts@plt>
  401051:	bf 78 2e 40 00       	mov    $0x402e78,%edi
  401056:	e8 05 fd ff ff       	callq  400d60 <puts@plt>
  40105b:	bf cc 2f 40 00       	mov    $0x402fcc,%edi
  401060:	e8 fb fc ff ff       	callq  400d60 <puts@plt>
  401065:	eb c7                	jmp    40102e <usage+0x47>

0000000000401067 <initialize_target>:
  401067:	55                   	push   %rbp
  401068:	53                   	push   %rbx
  401069:	48 81 ec 08 21 00 00 	sub    $0x2108,%rsp
  401070:	89 f5                	mov    %esi,%ebp
  401072:	89 3d 80 44 20 00    	mov    %edi,0x204480(%rip)        # 6054f8 <check_level>
  401078:	8b 3d ca 40 20 00    	mov    0x2040ca(%rip),%edi        # 605148 <target_id>
  40107e:	e8 9b 1c 00 00       	callq  402d1e <gencookie>
  401083:	89 05 7b 44 20 00    	mov    %eax,0x20447b(%rip)        # 605504 <cookie>
  401089:	89 c7                	mov    %eax,%edi
  40108b:	e8 8e 1c 00 00       	callq  402d1e <gencookie>
  401090:	89 05 6a 44 20 00    	mov    %eax,0x20446a(%rip)        # 605500 <authkey>
  401096:	8b 05 ac 40 20 00    	mov    0x2040ac(%rip),%eax        # 605148 <target_id>
  40109c:	8d 78 01             	lea    0x1(%rax),%edi
  40109f:	e8 8c fc ff ff       	callq  400d30 <srandom@plt>
  4010a4:	e8 97 fd ff ff       	callq  400e40 <random@plt>
  4010a9:	89 c7                	mov    %eax,%edi
  4010ab:	e8 b8 02 00 00       	callq  401368 <scramble>
  4010b0:	89 c3                	mov    %eax,%ebx
  4010b2:	85 ed                	test   %ebp,%ebp
  4010b4:	75 3d                	jne    4010f3 <initialize_target+0x8c>
  4010b6:	b8 00 00 00 00       	mov    $0x0,%eax
  4010bb:	01 d8                	add    %ebx,%eax
  4010bd:	0f b7 c0             	movzwl %ax,%eax
  4010c0:	8d 04 c5 00 01 00 00 	lea    0x100(,%rax,8),%eax
  4010c7:	89 c0                	mov    %eax,%eax
  4010c9:	48 89 05 b0 43 20 00 	mov    %rax,0x2043b0(%rip)        # 605480 <buf_offset>
  4010d0:	c6 05 51 50 20 00 72 	movb   $0x72,0x205051(%rip)        # 606128 <target_prefix>
  4010d7:	83 3d aa 43 20 00 00 	cmpl   $0x0,0x2043aa(%rip)        # 605488 <notify>
  4010de:	74 09                	je     4010e9 <initialize_target+0x82>
  4010e0:	83 3d 21 44 20 00 00 	cmpl   $0x0,0x204421(%rip)        # 605508 <is_checker>
  4010e7:	74 22                	je     40110b <initialize_target+0xa4>
  4010e9:	48 81 c4 08 21 00 00 	add    $0x2108,%rsp
  4010f0:	5b                   	pop    %rbx
  4010f1:	5d                   	pop    %rbp
  4010f2:	c3                   	retq   
  4010f3:	bf 00 00 00 00       	mov    $0x0,%edi
  4010f8:	e8 33 fd ff ff       	callq  400e30 <time@plt>
  4010fd:	89 c7                	mov    %eax,%edi
  4010ff:	e8 2c fc ff ff       	callq  400d30 <srandom@plt>
  401104:	e8 37 fd ff ff       	callq  400e40 <random@plt>
  401109:	eb b0                	jmp    4010bb <initialize_target+0x54>
  40110b:	be 00 01 00 00       	mov    $0x100,%esi
  401110:	48 89 e7             	mov    %rsp,%rdi
  401113:	e8 a8 fd ff ff       	callq  400ec0 <gethostname@plt>
  401118:	89 c5                	mov    %eax,%ebp
  40111a:	85 c0                	test   %eax,%eax
  40111c:	75 23                	jne    401141 <initialize_target+0xda>
  40111e:	89 c3                	mov    %eax,%ebx
  401120:	48 63 c3             	movslq %ebx,%rax
  401123:	48 8b 3c c5 60 51 60 	mov    0x605160(,%rax,8),%rdi
  40112a:	00 
  40112b:	48 85 ff             	test   %rdi,%rdi
  40112e:	74 2a                	je     40115a <initialize_target+0xf3>
  401130:	48 89 e6             	mov    %rsp,%rsi
  401133:	e8 d8 fb ff ff       	callq  400d10 <strcasecmp@plt>
  401138:	85 c0                	test   %eax,%eax
  40113a:	74 19                	je     401155 <initialize_target+0xee>
  40113c:	83 c3 01             	add    $0x1,%ebx
  40113f:	eb df                	jmp    401120 <initialize_target+0xb9>
  401141:	bf a8 2e 40 00       	mov    $0x402ea8,%edi
  401146:	e8 15 fc ff ff       	callq  400d60 <puts@plt>
  40114b:	bf 08 00 00 00       	mov    $0x8,%edi
  401150:	e8 8b fd ff ff       	callq  400ee0 <exit@plt>
  401155:	bd 01 00 00 00       	mov    $0x1,%ebp
  40115a:	85 ed                	test   %ebp,%ebp
  40115c:	74 36                	je     401194 <initialize_target+0x12d>
  40115e:	48 8d bc 24 00 01 00 	lea    0x100(%rsp),%rdi
  401165:	00 
  401166:	e8 46 19 00 00       	callq  402ab1 <init_driver>
  40116b:	85 c0                	test   %eax,%eax
  40116d:	0f 89 76 ff ff ff    	jns    4010e9 <initialize_target+0x82>
  401173:	48 8d b4 24 00 01 00 	lea    0x100(%rsp),%rsi
  40117a:	00 
  40117b:	bf 20 2f 40 00       	mov    $0x402f20,%edi
  401180:	b8 00 00 00 00       	mov    $0x0,%eax
  401185:	e8 06 fc ff ff       	callq  400d90 <printf@plt>
  40118a:	bf 08 00 00 00       	mov    $0x8,%edi
  40118f:	e8 4c fd ff ff       	callq  400ee0 <exit@plt>
  401194:	48 89 e6             	mov    %rsp,%rsi
  401197:	bf e0 2e 40 00       	mov    $0x402ee0,%edi
  40119c:	b8 00 00 00 00       	mov    $0x0,%eax
  4011a1:	e8 ea fb ff ff       	callq  400d90 <printf@plt>
  4011a6:	bf 08 00 00 00       	mov    $0x8,%edi
  4011ab:	e8 30 fd ff ff       	callq  400ee0 <exit@plt>

00000000004011b0 <main>:
  4011b0:	41 56                	push   %r14
  4011b2:	41 55                	push   %r13
  4011b4:	41 54                	push   %r12
  4011b6:	55                   	push   %rbp
  4011b7:	53                   	push   %rbx
  4011b8:	41 89 fc             	mov    %edi,%r12d
  4011bb:	48 89 f3             	mov    %rsi,%rbx
  4011be:	be b9 1e 40 00       	mov    $0x401eb9,%esi
  4011c3:	bf 0b 00 00 00       	mov    $0xb,%edi
  4011c8:	e8 13 fc ff ff       	callq  400de0 <signal@plt>
  4011cd:	be 6b 1e 40 00       	mov    $0x401e6b,%esi
  4011d2:	bf 07 00 00 00       	mov    $0x7,%edi
  4011d7:	e8 04 fc ff ff       	callq  400de0 <signal@plt>
  4011dc:	be 07 1f 40 00       	mov    $0x401f07,%esi
  4011e1:	bf 04 00 00 00       	mov    $0x4,%edi
  4011e6:	e8 f5 fb ff ff       	callq  400de0 <signal@plt>
  4011eb:	83 3d 16 43 20 00 00 	cmpl   $0x0,0x204316(%rip)        # 605508 <is_checker>
  4011f2:	75 24                	jne    401218 <main+0x68>
  4011f4:	bd e5 2f 40 00       	mov    $0x402fe5,%ebp
  4011f9:	48 8b 05 a0 42 20 00 	mov    0x2042a0(%rip),%rax        # 6054a0 <stdin@@GLIBC_2.2.5>
  401200:	48 89 05 e9 42 20 00 	mov    %rax,0x2042e9(%rip)        # 6054f0 <infile>
  401207:	41 bd 00 00 00 00    	mov    $0x0,%r13d
  40120d:	41 be 00 00 00 00    	mov    $0x0,%r14d
  401213:	e9 80 00 00 00       	jmpq   401298 <main+0xe8>
  401218:	be 55 1f 40 00       	mov    $0x401f55,%esi
  40121d:	bf 0e 00 00 00       	mov    $0xe,%edi
  401222:	e8 b9 fb ff ff       	callq  400de0 <signal@plt>
  401227:	bf 05 00 00 00       	mov    $0x5,%edi
  40122c:	e8 7f fb ff ff       	callq  400db0 <alarm@plt>
  401231:	bd ea 2f 40 00       	mov    $0x402fea,%ebp
  401236:	eb c1                	jmp    4011f9 <main+0x49>
  401238:	48 8b 3b             	mov    (%rbx),%rdi
  40123b:	e8 a7 fd ff ff       	callq  400fe7 <usage>
  401240:	be 85 32 40 00       	mov    $0x403285,%esi
  401245:	48 8b 3d 64 42 20 00 	mov    0x204264(%rip),%rdi        # 6054b0 <optarg@@GLIBC_2.2.5>
  40124c:	e8 3f fc ff ff       	callq  400e90 <fopen@plt>
  401251:	48 89 05 98 42 20 00 	mov    %rax,0x204298(%rip)        # 6054f0 <infile>
  401258:	48 85 c0             	test   %rax,%rax
  40125b:	75 3b                	jne    401298 <main+0xe8>
  40125d:	48 8b 15 4c 42 20 00 	mov    0x20424c(%rip),%rdx        # 6054b0 <optarg@@GLIBC_2.2.5>
  401264:	be f2 2f 40 00       	mov    $0x402ff2,%esi
  401269:	48 8b 3d 50 42 20 00 	mov    0x204250(%rip),%rdi        # 6054c0 <stderr@@GLIBC_2.2.5>
  401270:	e8 8b fb ff ff       	callq  400e00 <fprintf@plt>
  401275:	b8 01 00 00 00       	mov    $0x1,%eax
  40127a:	e9 c2 00 00 00       	jmpq   401341 <main+0x191>
  40127f:	ba 10 00 00 00       	mov    $0x10,%edx
  401284:	be 00 00 00 00       	mov    $0x0,%esi
  401289:	48 8b 3d 20 42 20 00 	mov    0x204220(%rip),%rdi        # 6054b0 <optarg@@GLIBC_2.2.5>
  401290:	e8 1b fc ff ff       	callq  400eb0 <strtoul@plt>
  401295:	41 89 c6             	mov    %eax,%r14d
  401298:	48 89 ea             	mov    %rbp,%rdx
  40129b:	48 89 de             	mov    %rbx,%rsi
  40129e:	44 89 e7             	mov    %r12d,%edi
  4012a1:	e8 fa fb ff ff       	callq  400ea0 <getopt@plt>
  4012a6:	3c ff                	cmp    $0xff,%al
  4012a8:	74 52                	je     4012fc <main+0x14c>
  4012aa:	0f be f0             	movsbl %al,%esi
  4012ad:	83 e8 61             	sub    $0x61,%eax
  4012b0:	3c 10                	cmp    $0x10,%al
  4012b2:	77 31                	ja     4012e5 <main+0x135>
  4012b4:	0f b6 c0             	movzbl %al,%eax
  4012b7:	ff 24 c5 30 30 40 00 	jmpq   *0x403030(,%rax,8)
  4012be:	ba 0a 00 00 00       	mov    $0xa,%edx
  4012c3:	be 00 00 00 00       	mov    $0x0,%esi
  4012c8:	48 8b 3d e1 41 20 00 	mov    0x2041e1(%rip),%rdi        # 6054b0 <optarg@@GLIBC_2.2.5>
  4012cf:	e8 3c fb ff ff       	callq  400e10 <strtol@plt>
  4012d4:	41 89 c5             	mov    %eax,%r13d
  4012d7:	eb bf                	jmp    401298 <main+0xe8>
  4012d9:	c7 05 a5 41 20 00 00 	movl   $0x0,0x2041a5(%rip)        # 605488 <notify>
  4012e0:	00 00 00 
  4012e3:	eb b3                	jmp    401298 <main+0xe8>
  4012e5:	bf 0f 30 40 00       	mov    $0x40300f,%edi
  4012ea:	b8 00 00 00 00       	mov    $0x0,%eax
  4012ef:	e8 9c fa ff ff       	callq  400d90 <printf@plt>
  4012f4:	48 8b 3b             	mov    (%rbx),%rdi
  4012f7:	e8 eb fc ff ff       	callq  400fe7 <usage>
  4012fc:	be 01 00 00 00       	mov    $0x1,%esi
  401301:	44 89 ef             	mov    %r13d,%edi
  401304:	e8 5e fd ff ff       	callq  401067 <initialize_target>
  401309:	83 3d f8 41 20 00 00 	cmpl   $0x0,0x2041f8(%rip)        # 605508 <is_checker>
  401310:	74 09                	je     40131b <main+0x16b>
  401312:	44 39 35 e7 41 20 00 	cmp    %r14d,0x2041e7(%rip)        # 605500 <authkey>
  401319:	75 2f                	jne    40134a <main+0x19a>
  40131b:	8b 35 e3 41 20 00    	mov    0x2041e3(%rip),%esi        # 605504 <cookie>
  401321:	bf 22 30 40 00       	mov    $0x403022,%edi
  401326:	b8 00 00 00 00       	mov    $0x0,%eax
  40132b:	e8 60 fa ff ff       	callq  400d90 <printf@plt>
  401330:	48 8b 3d 49 41 20 00 	mov    0x204149(%rip),%rdi        # 605480 <buf_offset>
  401337:	e8 67 0c 00 00       	callq  401fa3 <launch>
  40133c:	b8 00 00 00 00       	mov    $0x0,%eax
  401341:	5b                   	pop    %rbx
  401342:	5d                   	pop    %rbp
  401343:	41 5c                	pop    %r12
  401345:	41 5d                	pop    %r13
  401347:	41 5e                	pop    %r14
  401349:	c3                   	retq   
  40134a:	44 89 f6             	mov    %r14d,%esi
  40134d:	bf 48 2f 40 00       	mov    $0x402f48,%edi
  401352:	b8 00 00 00 00       	mov    $0x0,%eax
  401357:	e8 34 fa ff ff       	callq  400d90 <printf@plt>
  40135c:	b8 00 00 00 00       	mov    $0x0,%eax
  401361:	e8 01 08 00 00       	callq  401b67 <check_fail>
  401366:	eb b3                	jmp    40131b <main+0x16b>

0000000000401368 <scramble>:
  401368:	b8 00 00 00 00       	mov    $0x0,%eax
  40136d:	eb 11                	jmp    401380 <scramble+0x18>
  40136f:	69 d0 bb 40 00 00    	imul   $0x40bb,%eax,%edx
  401375:	01 fa                	add    %edi,%edx
  401377:	89 c1                	mov    %eax,%ecx
  401379:	89 54 8c d0          	mov    %edx,-0x30(%rsp,%rcx,4)
  40137d:	83 c0 01             	add    $0x1,%eax
  401380:	83 f8 09             	cmp    $0x9,%eax
  401383:	76 ea                	jbe    40136f <scramble+0x7>
  401385:	8b 44 24 d4          	mov    -0x2c(%rsp),%eax
  401389:	69 c0 fe ea 00 00    	imul   $0xeafe,%eax,%eax
  40138f:	89 44 24 d4          	mov    %eax,-0x2c(%rsp)
  401393:	8b 44 24 e0          	mov    -0x20(%rsp),%eax
  401397:	69 c0 1c 10 00 00    	imul   $0x101c,%eax,%eax
  40139d:	89 44 24 e0          	mov    %eax,-0x20(%rsp)
  4013a1:	8b 44 24 d8          	mov    -0x28(%rsp),%eax
  4013a5:	69 c0 2a 36 00 00    	imul   $0x362a,%eax,%eax
  4013ab:	89 44 24 d8          	mov    %eax,-0x28(%rsp)
  4013af:	8b 44 24 f4          	mov    -0xc(%rsp),%eax
  4013b3:	69 c0 32 a3 00 00    	imul   $0xa332,%eax,%eax
  4013b9:	89 44 24 f4          	mov    %eax,-0xc(%rsp)
  4013bd:	8b 44 24 f4          	mov    -0xc(%rsp),%eax
  4013c1:	69 c0 d2 35 00 00    	imul   $0x35d2,%eax,%eax
  4013c7:	89 44 24 f4          	mov    %eax,-0xc(%rsp)
  4013cb:	8b 44 24 e0          	mov    -0x20(%rsp),%eax
  4013cf:	69 c0 02 4e 00 00    	imul   $0x4e02,%eax,%eax
  4013d5:	89 44 24 e0          	mov    %eax,-0x20(%rsp)
  4013d9:	8b 44 24 e4          	mov    -0x1c(%rsp),%eax
  4013dd:	69 c0 f6 4e 00 00    	imul   $0x4ef6,%eax,%eax
  4013e3:	89 44 24 e4          	mov    %eax,-0x1c(%rsp)
  4013e7:	8b 44 24 ec          	mov    -0x14(%rsp),%eax
  4013eb:	69 c0 d9 e0 00 00    	imul   $0xe0d9,%eax,%eax
  4013f1:	89 44 24 ec          	mov    %eax,-0x14(%rsp)
  4013f5:	8b 44 24 ec          	mov    -0x14(%rsp),%eax
  4013f9:	69 c0 99 ff 00 00    	imul   $0xff99,%eax,%eax
  4013ff:	89 44 24 ec          	mov    %eax,-0x14(%rsp)
  401403:	8b 44 24 ec          	mov    -0x14(%rsp),%eax
  401407:	69 c0 e7 92 00 00    	imul   $0x92e7,%eax,%eax
  40140d:	89 44 24 ec          	mov    %eax,-0x14(%rsp)
  401411:	8b 44 24 f4          	mov    -0xc(%rsp),%eax
  401415:	69 c0 85 40 00 00    	imul   $0x4085,%eax,%eax
  40141b:	89 44 24 f4          	mov    %eax,-0xc(%rsp)
  40141f:	8b 44 24 f4          	mov    -0xc(%rsp),%eax
  401423:	69 c0 99 ad 00 00    	imul   $0xad99,%eax,%eax
  401429:	89 44 24 f4          	mov    %eax,-0xc(%rsp)
  40142d:	8b 44 24 f4          	mov    -0xc(%rsp),%eax
  401431:	69 c0 87 4a 00 00    	imul   $0x4a87,%eax,%eax
  401437:	89 44 24 f4          	mov    %eax,-0xc(%rsp)
  40143b:	8b 44 24 e0          	mov    -0x20(%rsp),%eax
  40143f:	69 c0 4d 7e 00 00    	imul   $0x7e4d,%eax,%eax
  401445:	89 44 24 e0          	mov    %eax,-0x20(%rsp)
  401449:	8b 44 24 e8          	mov    -0x18(%rsp),%eax
  40144d:	69 c0 28 fc 00 00    	imul   $0xfc28,%eax,%eax
  401453:	89 44 24 e8          	mov    %eax,-0x18(%rsp)
  401457:	8b 44 24 f4          	mov    -0xc(%rsp),%eax
  40145b:	69 c0 f3 89 00 00    	imul   $0x89f3,%eax,%eax
  401461:	89 44 24 f4          	mov    %eax,-0xc(%rsp)
  401465:	8b 44 24 d4          	mov    -0x2c(%rsp),%eax
  401469:	69 c0 0b 44 00 00    	imul   $0x440b,%eax,%eax
  40146f:	89 44 24 d4          	mov    %eax,-0x2c(%rsp)
  401473:	8b 44 24 e4          	mov    -0x1c(%rsp),%eax
  401477:	69 c0 11 b3 00 00    	imul   $0xb311,%eax,%eax
  40147d:	89 44 24 e4          	mov    %eax,-0x1c(%rsp)
  401481:	8b 44 24 ec          	mov    -0x14(%rsp),%eax
  401485:	69 c0 d7 88 00 00    	imul   $0x88d7,%eax,%eax
  40148b:	89 44 24 ec          	mov    %eax,-0x14(%rsp)
  40148f:	8b 44 24 e0          	mov    -0x20(%rsp),%eax
  401493:	69 c0 e0 eb 00 00    	imul   $0xebe0,%eax,%eax
  401499:	89 44 24 e0          	mov    %eax,-0x20(%rsp)
  40149d:	8b 44 24 e8          	mov    -0x18(%rsp),%eax
  4014a1:	69 c0 6a c0 00 00    	imul   $0xc06a,%eax,%eax
  4014a7:	89 44 24 e8          	mov    %eax,-0x18(%rsp)
  4014ab:	8b 44 24 e8          	mov    -0x18(%rsp),%eax
  4014af:	69 c0 c4 41 00 00    	imul   $0x41c4,%eax,%eax
  4014b5:	89 44 24 e8          	mov    %eax,-0x18(%rsp)
  4014b9:	8b 44 24 dc          	mov    -0x24(%rsp),%eax
  4014bd:	69 c0 bc cb 00 00    	imul   $0xcbbc,%eax,%eax
  4014c3:	89 44 24 dc          	mov    %eax,-0x24(%rsp)
  4014c7:	8b 44 24 dc          	mov    -0x24(%rsp),%eax
  4014cb:	69 c0 17 fb 00 00    	imul   $0xfb17,%eax,%eax
  4014d1:	89 44 24 dc          	mov    %eax,-0x24(%rsp)
  4014d5:	8b 44 24 e4          	mov    -0x1c(%rsp),%eax
  4014d9:	69 c0 38 59 00 00    	imul   $0x5938,%eax,%eax
  4014df:	89 44 24 e4          	mov    %eax,-0x1c(%rsp)
  4014e3:	8b 44 24 ec          	mov    -0x14(%rsp),%eax
  4014e7:	69 c0 e7 62 00 00    	imul   $0x62e7,%eax,%eax
  4014ed:	89 44 24 ec          	mov    %eax,-0x14(%rsp)
  4014f1:	8b 44 24 d8          	mov    -0x28(%rsp),%eax
  4014f5:	69 c0 88 19 00 00    	imul   $0x1988,%eax,%eax
  4014fb:	89 44 24 d8          	mov    %eax,-0x28(%rsp)
  4014ff:	8b 44 24 f4          	mov    -0xc(%rsp),%eax
  401503:	69 c0 e8 8b 00 00    	imul   $0x8be8,%eax,%eax
  401509:	89 44 24 f4          	mov    %eax,-0xc(%rsp)
  40150d:	8b 44 24 d4          	mov    -0x2c(%rsp),%eax
  401511:	69 c0 a2 06 00 00    	imul   $0x6a2,%eax,%eax
  401517:	89 44 24 d4          	mov    %eax,-0x2c(%rsp)
  40151b:	8b 44 24 d0          	mov    -0x30(%rsp),%eax
  40151f:	69 c0 47 ad 00 00    	imul   $0xad47,%eax,%eax
  401525:	89 44 24 d0          	mov    %eax,-0x30(%rsp)
  401529:	8b 44 24 d8          	mov    -0x28(%rsp),%eax
  40152d:	69 c0 28 18 00 00    	imul   $0x1828,%eax,%eax
  401533:	89 44 24 d8          	mov    %eax,-0x28(%rsp)
  401537:	8b 44 24 d4          	mov    -0x2c(%rsp),%eax
  40153b:	69 c0 f1 e9 00 00    	imul   $0xe9f1,%eax,%eax
  401541:	89 44 24 d4          	mov    %eax,-0x2c(%rsp)
  401545:	8b 44 24 e0          	mov    -0x20(%rsp),%eax
  401549:	69 c0 4a d1 00 00    	imul   $0xd14a,%eax,%eax
  40154f:	89 44 24 e0          	mov    %eax,-0x20(%rsp)
  401553:	8b 44 24 f4          	mov    -0xc(%rsp),%eax
  401557:	69 c0 69 d6 00 00    	imul   $0xd669,%eax,%eax
  40155d:	89 44 24 f4          	mov    %eax,-0xc(%rsp)
  401561:	8b 44 24 dc          	mov    -0x24(%rsp),%eax
  401565:	69 c0 46 f3 00 00    	imul   $0xf346,%eax,%eax
  40156b:	89 44 24 dc          	mov    %eax,-0x24(%rsp)
  40156f:	8b 44 24 d8          	mov    -0x28(%rsp),%eax
  401573:	69 c0 cb 18 00 00    	imul   $0x18cb,%eax,%eax
  401579:	89 44 24 d8          	mov    %eax,-0x28(%rsp)
  40157d:	8b 44 24 e4          	mov    -0x1c(%rsp),%eax
  401581:	69 c0 2c fc 00 00    	imul   $0xfc2c,%eax,%eax
  401587:	89 44 24 e4          	mov    %eax,-0x1c(%rsp)
  40158b:	8b 44 24 e8          	mov    -0x18(%rsp),%eax
  40158f:	69 c0 11 c3 00 00    	imul   $0xc311,%eax,%eax
  401595:	89 44 24 e8          	mov    %eax,-0x18(%rsp)
  401599:	8b 44 24 e0          	mov    -0x20(%rsp),%eax
  40159d:	69 c0 2c 7d 00 00    	imul   $0x7d2c,%eax,%eax
  4015a3:	89 44 24 e0          	mov    %eax,-0x20(%rsp)
  4015a7:	8b 44 24 d4          	mov    -0x2c(%rsp),%eax
  4015ab:	69 c0 3d 93 00 00    	imul   $0x933d,%eax,%eax
  4015b1:	89 44 24 d4          	mov    %eax,-0x2c(%rsp)
  4015b5:	8b 44 24 d8          	mov    -0x28(%rsp),%eax
  4015b9:	69 c0 27 4c 00 00    	imul   $0x4c27,%eax,%eax
  4015bf:	89 44 24 d8          	mov    %eax,-0x28(%rsp)
  4015c3:	8b 44 24 ec          	mov    -0x14(%rsp),%eax
  4015c7:	69 c0 22 70 00 00    	imul   $0x7022,%eax,%eax
  4015cd:	89 44 24 ec          	mov    %eax,-0x14(%rsp)
  4015d1:	8b 44 24 d4          	mov    -0x2c(%rsp),%eax
  4015d5:	69 c0 a5 06 00 00    	imul   $0x6a5,%eax,%eax
  4015db:	89 44 24 d4          	mov    %eax,-0x2c(%rsp)
  4015df:	8b 44 24 ec          	mov    -0x14(%rsp),%eax
  4015e3:	69 c0 be c9 00 00    	imul   $0xc9be,%eax,%eax
  4015e9:	89 44 24 ec          	mov    %eax,-0x14(%rsp)
  4015ed:	8b 44 24 dc          	mov    -0x24(%rsp),%eax
  4015f1:	69 c0 40 06 00 00    	imul   $0x640,%eax,%eax
  4015f7:	89 44 24 dc          	mov    %eax,-0x24(%rsp)
  4015fb:	8b 44 24 e0          	mov    -0x20(%rsp),%eax
  4015ff:	69 c0 11 10 00 00    	imul   $0x1011,%eax,%eax
  401605:	89 44 24 e0          	mov    %eax,-0x20(%rsp)
  401609:	8b 44 24 f4          	mov    -0xc(%rsp),%eax
  40160d:	69 c0 40 ae 00 00    	imul   $0xae40,%eax,%eax
  401613:	89 44 24 f4          	mov    %eax,-0xc(%rsp)
  401617:	8b 44 24 d8          	mov    -0x28(%rsp),%eax
  40161b:	69 c0 9c 7a 00 00    	imul   $0x7a9c,%eax,%eax
  401621:	89 44 24 d8          	mov    %eax,-0x28(%rsp)
  401625:	8b 44 24 e4          	mov    -0x1c(%rsp),%eax
  401629:	69 c0 05 97 00 00    	imul   $0x9705,%eax,%eax
  40162f:	89 44 24 e4          	mov    %eax,-0x1c(%rsp)
  401633:	8b 44 24 f4          	mov    -0xc(%rsp),%eax
  401637:	69 c0 ab d9 00 00    	imul   $0xd9ab,%eax,%eax
  40163d:	89 44 24 f4          	mov    %eax,-0xc(%rsp)
  401641:	8b 44 24 ec          	mov    -0x14(%rsp),%eax
  401645:	69 c0 4e 13 00 00    	imul   $0x134e,%eax,%eax
  40164b:	89 44 24 ec          	mov    %eax,-0x14(%rsp)
  40164f:	8b 44 24 d8          	mov    -0x28(%rsp),%eax
  401653:	69 c0 fc 3d 00 00    	imul   $0x3dfc,%eax,%eax
  401659:	89 44 24 d8          	mov    %eax,-0x28(%rsp)
  40165d:	8b 44 24 e4          	mov    -0x1c(%rsp),%eax
  401661:	69 c0 06 4d 00 00    	imul   $0x4d06,%eax,%eax
  401667:	89 44 24 e4          	mov    %eax,-0x1c(%rsp)
  40166b:	8b 44 24 e4          	mov    -0x1c(%rsp),%eax
  40166f:	69 c0 62 d7 00 00    	imul   $0xd762,%eax,%eax
  401675:	89 44 24 e4          	mov    %eax,-0x1c(%rsp)
  401679:	8b 44 24 f0          	mov    -0x10(%rsp),%eax
  40167d:	69 c0 35 bf 00 00    	imul   $0xbf35,%eax,%eax
  401683:	89 44 24 f0          	mov    %eax,-0x10(%rsp)
  401687:	8b 44 24 dc          	mov    -0x24(%rsp),%eax
  40168b:	69 c0 98 a0 00 00    	imul   $0xa098,%eax,%eax
  401691:	89 44 24 dc          	mov    %eax,-0x24(%rsp)
  401695:	8b 44 24 d0          	mov    -0x30(%rsp),%eax
  401699:	69 c0 c4 60 00 00    	imul   $0x60c4,%eax,%eax
  40169f:	89 44 24 d0          	mov    %eax,-0x30(%rsp)
  4016a3:	8b 44 24 e4          	mov    -0x1c(%rsp),%eax
  4016a7:	69 c0 0c 71 00 00    	imul   $0x710c,%eax,%eax
  4016ad:	89 44 24 e4          	mov    %eax,-0x1c(%rsp)
  4016b1:	8b 44 24 f4          	mov    -0xc(%rsp),%eax
  4016b5:	69 c0 c5 0c 00 00    	imul   $0xcc5,%eax,%eax
  4016bb:	89 44 24 f4          	mov    %eax,-0xc(%rsp)
  4016bf:	8b 44 24 e8          	mov    -0x18(%rsp),%eax
  4016c3:	69 c0 b0 74 00 00    	imul   $0x74b0,%eax,%eax
  4016c9:	89 44 24 e8          	mov    %eax,-0x18(%rsp)
  4016cd:	8b 44 24 e0          	mov    -0x20(%rsp),%eax
  4016d1:	69 c0 d0 b1 00 00    	imul   $0xb1d0,%eax,%eax
  4016d7:	89 44 24 e0          	mov    %eax,-0x20(%rsp)
  4016db:	8b 44 24 d0          	mov    -0x30(%rsp),%eax
  4016df:	69 c0 6e 31 00 00    	imul   $0x316e,%eax,%eax
  4016e5:	89 44 24 d0          	mov    %eax,-0x30(%rsp)
  4016e9:	8b 44 24 d0          	mov    -0x30(%rsp),%eax
  4016ed:	69 c0 c5 7e 00 00    	imul   $0x7ec5,%eax,%eax
  4016f3:	89 44 24 d0          	mov    %eax,-0x30(%rsp)
  4016f7:	8b 44 24 d0          	mov    -0x30(%rsp),%eax
  4016fb:	69 c0 9a df 00 00    	imul   $0xdf9a,%eax,%eax
  401701:	89 44 24 d0          	mov    %eax,-0x30(%rsp)
  401705:	8b 44 24 e8          	mov    -0x18(%rsp),%eax
  401709:	69 c0 0f fd 00 00    	imul   $0xfd0f,%eax,%eax
  40170f:	89 44 24 e8          	mov    %eax,-0x18(%rsp)
  401713:	8b 44 24 e8          	mov    -0x18(%rsp),%eax
  401717:	69 c0 16 a0 00 00    	imul   $0xa016,%eax,%eax
  40171d:	89 44 24 e8          	mov    %eax,-0x18(%rsp)
  401721:	8b 44 24 e0          	mov    -0x20(%rsp),%eax
  401725:	69 c0 bd ab 00 00    	imul   $0xabbd,%eax,%eax
  40172b:	89 44 24 e0          	mov    %eax,-0x20(%rsp)
  40172f:	8b 44 24 f4          	mov    -0xc(%rsp),%eax
  401733:	69 c0 d8 1f 00 00    	imul   $0x1fd8,%eax,%eax
  401739:	89 44 24 f4          	mov    %eax,-0xc(%rsp)
  40173d:	8b 44 24 f4          	mov    -0xc(%rsp),%eax
  401741:	69 c0 1f df 00 00    	imul   $0xdf1f,%eax,%eax
  401747:	89 44 24 f4          	mov    %eax,-0xc(%rsp)
  40174b:	8b 44 24 d8          	mov    -0x28(%rsp),%eax
  40174f:	69 c0 f6 c2 00 00    	imul   $0xc2f6,%eax,%eax
  401755:	89 44 24 d8          	mov    %eax,-0x28(%rsp)
  401759:	8b 44 24 e0          	mov    -0x20(%rsp),%eax
  40175d:	69 c0 db 61 00 00    	imul   $0x61db,%eax,%eax
  401763:	89 44 24 e0          	mov    %eax,-0x20(%rsp)
  401767:	8b 44 24 f4          	mov    -0xc(%rsp),%eax
  40176b:	69 c0 b1 a9 00 00    	imul   $0xa9b1,%eax,%eax
  401771:	89 44 24 f4          	mov    %eax,-0xc(%rsp)
  401775:	8b 44 24 f0          	mov    -0x10(%rsp),%eax
  401779:	69 c0 49 74 00 00    	imul   $0x7449,%eax,%eax
  40177f:	89 44 24 f0          	mov    %eax,-0x10(%rsp)
  401783:	8b 44 24 e8          	mov    -0x18(%rsp),%eax
  401787:	69 c0 09 2a 00 00    	imul   $0x2a09,%eax,%eax
  40178d:	89 44 24 e8          	mov    %eax,-0x18(%rsp)
  401791:	8b 44 24 d4          	mov    -0x2c(%rsp),%eax
  401795:	69 c0 89 55 00 00    	imul   $0x5589,%eax,%eax
  40179b:	89 44 24 d4          	mov    %eax,-0x2c(%rsp)
  40179f:	8b 44 24 dc          	mov    -0x24(%rsp),%eax
  4017a3:	69 c0 14 94 00 00    	imul   $0x9414,%eax,%eax
  4017a9:	89 44 24 dc          	mov    %eax,-0x24(%rsp)
  4017ad:	8b 44 24 ec          	mov    -0x14(%rsp),%eax
  4017b1:	69 c0 7b 23 00 00    	imul   $0x237b,%eax,%eax
  4017b7:	89 44 24 ec          	mov    %eax,-0x14(%rsp)
  4017bb:	8b 44 24 d8          	mov    -0x28(%rsp),%eax
  4017bf:	69 c0 6a 67 00 00    	imul   $0x676a,%eax,%eax
  4017c5:	89 44 24 d8          	mov    %eax,-0x28(%rsp)
  4017c9:	8b 44 24 d0          	mov    -0x30(%rsp),%eax
  4017cd:	69 c0 8d 71 00 00    	imul   $0x718d,%eax,%eax
  4017d3:	89 44 24 d0          	mov    %eax,-0x30(%rsp)
  4017d7:	8b 44 24 e4          	mov    -0x1c(%rsp),%eax
  4017db:	69 c0 0b b8 00 00    	imul   $0xb80b,%eax,%eax
  4017e1:	89 44 24 e4          	mov    %eax,-0x1c(%rsp)
  4017e5:	8b 44 24 e4          	mov    -0x1c(%rsp),%eax
  4017e9:	6b c0 4a             	imul   $0x4a,%eax,%eax
  4017ec:	89 44 24 e4          	mov    %eax,-0x1c(%rsp)
  4017f0:	8b 44 24 dc          	mov    -0x24(%rsp),%eax
  4017f4:	69 c0 fb 7e 00 00    	imul   $0x7efb,%eax,%eax
  4017fa:	89 44 24 dc          	mov    %eax,-0x24(%rsp)
  4017fe:	8b 44 24 dc          	mov    -0x24(%rsp),%eax
  401802:	69 c0 33 36 00 00    	imul   $0x3633,%eax,%eax
  401808:	89 44 24 dc          	mov    %eax,-0x24(%rsp)
  40180c:	8b 44 24 d8          	mov    -0x28(%rsp),%eax
  401810:	69 c0 cb a4 00 00    	imul   $0xa4cb,%eax,%eax
  401816:	89 44 24 d8          	mov    %eax,-0x28(%rsp)
  40181a:	ba 00 00 00 00       	mov    $0x0,%edx
  40181f:	b8 00 00 00 00       	mov    $0x0,%eax
  401824:	eb 0b                	jmp    401831 <scramble+0x4c9>
  401826:	89 d1                	mov    %edx,%ecx
  401828:	8b 4c 8c d0          	mov    -0x30(%rsp,%rcx,4),%ecx
  40182c:	01 c8                	add    %ecx,%eax
  40182e:	83 c2 01             	add    $0x1,%edx
  401831:	83 fa 09             	cmp    $0x9,%edx
  401834:	76 f0                	jbe    401826 <scramble+0x4be>
  401836:	f3 c3                	repz retq 

0000000000401838 <getbuf>:
  401838:	48 83 ec 38          	sub    $0x38,%rsp
  40183c:	48 89 e7             	mov    %rsp,%rdi
  40183f:	e8 52 03 00 00       	callq  401b96 <Gets>
  401844:	b8 01 00 00 00       	mov    $0x1,%eax
  401849:	48 83 c4 38          	add    $0x38,%rsp
  40184d:	c3                   	retq   

000000000040184e <touch1>:
  40184e:	48 83 ec 08          	sub    $0x8,%rsp
  401852:	c7 05 a0 3c 20 00 01 	movl   $0x1,0x203ca0(%rip)        # 6054fc <vlevel>
  401859:	00 00 00 
  40185c:	bf db 30 40 00       	mov    $0x4030db,%edi
  401861:	e8 fa f4 ff ff       	callq  400d60 <puts@plt>
  401866:	bf 01 00 00 00       	mov    $0x1,%edi
  40186b:	e8 21 05 00 00       	callq  401d91 <validate>
  401870:	bf 00 00 00 00       	mov    $0x0,%edi
  401875:	e8 66 f6 ff ff       	callq  400ee0 <exit@plt>

000000000040187a <touch2>:
  40187a:	48 83 ec 08          	sub    $0x8,%rsp
  40187e:	89 fe                	mov    %edi,%esi
  401880:	c7 05 72 3c 20 00 02 	movl   $0x2,0x203c72(%rip)        # 6054fc <vlevel>
  401887:	00 00 00 
  40188a:	39 3d 74 3c 20 00    	cmp    %edi,0x203c74(%rip)        # 605504 <cookie>
  401890:	74 23                	je     4018b5 <touch2+0x3b>
  401892:	bf 28 31 40 00       	mov    $0x403128,%edi
  401897:	b8 00 00 00 00       	mov    $0x0,%eax
  40189c:	e8 ef f4 ff ff       	callq  400d90 <printf@plt>
  4018a1:	bf 02 00 00 00       	mov    $0x2,%edi
  4018a6:	e8 98 05 00 00       	callq  401e43 <fail>
  4018ab:	bf 00 00 00 00       	mov    $0x0,%edi
  4018b0:	e8 2b f6 ff ff       	callq  400ee0 <exit@plt>
  4018b5:	bf 00 31 40 00       	mov    $0x403100,%edi
  4018ba:	b8 00 00 00 00       	mov    $0x0,%eax
  4018bf:	e8 cc f4 ff ff       	callq  400d90 <printf@plt>
  4018c4:	bf 02 00 00 00       	mov    $0x2,%edi
  4018c9:	e8 c3 04 00 00       	callq  401d91 <validate>
  4018ce:	eb db                	jmp    4018ab <touch2+0x31>

00000000004018d0 <hexmatch>:
  4018d0:	41 54                	push   %r12
  4018d2:	55                   	push   %rbp
  4018d3:	53                   	push   %rbx
  4018d4:	48 83 ec 70          	sub    $0x70,%rsp
  4018d8:	89 fd                	mov    %edi,%ebp
  4018da:	48 89 f3             	mov    %rsi,%rbx
  4018dd:	e8 5e f5 ff ff       	callq  400e40 <random@plt>
  4018e2:	48 89 c1             	mov    %rax,%rcx
  4018e5:	48 ba 0b d7 a3 70 3d 	movabs $0xa3d70a3d70a3d70b,%rdx
  4018ec:	0a d7 a3 
  4018ef:	48 f7 ea             	imul   %rdx
  4018f2:	48 01 ca             	add    %rcx,%rdx
  4018f5:	48 c1 fa 06          	sar    $0x6,%rdx
  4018f9:	48 89 c8             	mov    %rcx,%rax
  4018fc:	48 c1 f8 3f          	sar    $0x3f,%rax
  401900:	48 29 c2             	sub    %rax,%rdx
  401903:	48 8d 04 92          	lea    (%rdx,%rdx,4),%rax
  401907:	48 8d 14 80          	lea    (%rax,%rax,4),%rdx
  40190b:	48 8d 04 95 00 00 00 	lea    0x0(,%rdx,4),%rax
  401912:	00 
  401913:	48 29 c1             	sub    %rax,%rcx
  401916:	4c 8d 24 0c          	lea    (%rsp,%rcx,1),%r12
  40191a:	89 ea                	mov    %ebp,%edx
  40191c:	be f8 30 40 00       	mov    $0x4030f8,%esi
  401921:	4c 89 e7             	mov    %r12,%rdi
  401924:	b8 00 00 00 00       	mov    $0x0,%eax
  401929:	e8 a2 f5 ff ff       	callq  400ed0 <sprintf@plt>
  40192e:	ba 09 00 00 00       	mov    $0x9,%edx
  401933:	4c 89 e6             	mov    %r12,%rsi
  401936:	48 89 df             	mov    %rbx,%rdi
  401939:	e8 02 f4 ff ff       	callq  400d40 <strncmp@plt>
  40193e:	85 c0                	test   %eax,%eax
  401940:	0f 94 c0             	sete   %al
  401943:	0f b6 c0             	movzbl %al,%eax
  401946:	48 83 c4 70          	add    $0x70,%rsp
  40194a:	5b                   	pop    %rbx
  40194b:	5d                   	pop    %rbp
  40194c:	41 5c                	pop    %r12
  40194e:	c3                   	retq   

000000000040194f <touch3>:
  40194f:	53                   	push   %rbx
  401950:	48 89 fb             	mov    %rdi,%rbx
  401953:	c7 05 9f 3b 20 00 03 	movl   $0x3,0x203b9f(%rip)        # 6054fc <vlevel>
  40195a:	00 00 00 
  40195d:	48 89 fe             	mov    %rdi,%rsi
  401960:	8b 3d 9e 3b 20 00    	mov    0x203b9e(%rip),%edi        # 605504 <cookie>
  401966:	e8 65 ff ff ff       	callq  4018d0 <hexmatch>
  40196b:	85 c0                	test   %eax,%eax
  40196d:	74 26                	je     401995 <touch3+0x46>
  40196f:	48 89 de             	mov    %rbx,%rsi
  401972:	bf 50 31 40 00       	mov    $0x403150,%edi
  401977:	b8 00 00 00 00       	mov    $0x0,%eax
  40197c:	e8 0f f4 ff ff       	callq  400d90 <printf@plt>
  401981:	bf 03 00 00 00       	mov    $0x3,%edi
  401986:	e8 06 04 00 00       	callq  401d91 <validate>
  40198b:	bf 00 00 00 00       	mov    $0x0,%edi
  401990:	e8 4b f5 ff ff       	callq  400ee0 <exit@plt>
  401995:	48 89 de             	mov    %rbx,%rsi
  401998:	bf 78 31 40 00       	mov    $0x403178,%edi
  40199d:	b8 00 00 00 00       	mov    $0x0,%eax
  4019a2:	e8 e9 f3 ff ff       	callq  400d90 <printf@plt>
  4019a7:	bf 03 00 00 00       	mov    $0x3,%edi
  4019ac:	e8 92 04 00 00       	callq  401e43 <fail>
  4019b1:	eb d8                	jmp    40198b <touch3+0x3c>

00000000004019b3 <test>:
  4019b3:	48 83 ec 08          	sub    $0x8,%rsp
  4019b7:	b8 00 00 00 00       	mov    $0x0,%eax
  4019bc:	e8 77 fe ff ff       	callq  401838 <getbuf>
  4019c1:	89 c6                	mov    %eax,%esi
  4019c3:	bf a0 31 40 00       	mov    $0x4031a0,%edi
  4019c8:	b8 00 00 00 00       	mov    $0x0,%eax
  4019cd:	e8 be f3 ff ff       	callq  400d90 <printf@plt>
  4019d2:	48 83 c4 08          	add    $0x8,%rsp
  4019d6:	c3                   	retq   

00000000004019d7 <start_farm>:
  4019d7:	b8 01 00 00 00       	mov    $0x1,%eax
  4019dc:	c3                   	retq   

00000000004019dd <addval_209>:
  4019dd:	8d 87 48 89 c7 c3    	lea    -0x3c3876b8(%rdi),%eax
  4019e3:	c3                   	retq   

00000000004019e4 <getval_383>:
  4019e4:	b8 48 89 c7 91       	mov    $0x91c78948,%eax
  4019e9:	c3                   	retq   

00000000004019ea <addval_442>:
  4019ea:	8d 87 48 89 c7 92    	lea    -0x6d3876b8(%rdi),%eax
  4019f0:	c3                   	retq   

00000000004019f1 <getval_411>:
  4019f1:	b8 d8 90 90 90       	mov    $0x909090d8,%eax
  4019f6:	c3                   	retq   

00000000004019f7 <addval_363>:
  4019f7:	8d 87 90 15 2b 58    	lea    0x582b1590(%rdi),%eax
  4019fd:	c3                   	retq   

00000000004019fe <setval_176>:
  4019fe:	c7 07 23 3f 55 58    	movl   $0x58553f23,(%rdi)
  401a04:	c3                   	retq   

0000000000401a05 <addval_308>:
  401a05:	8d 87 48 89 c7 c3    	lea    -0x3c3876b8(%rdi),%eax
  401a0b:	c3                   	retq   

0000000000401a0c <getval_488>:
  401a0c:	b8 58 90 91 c3       	mov    $0xc3919058,%eax
  401a11:	c3                   	retq   

0000000000401a12 <mid_farm>:
  401a12:	b8 01 00 00 00       	mov    $0x1,%eax
  401a17:	c3                   	retq   

0000000000401a18 <add_xy>:
  401a18:	48 8d 04 37          	lea    (%rdi,%rsi,1),%rax
  401a1c:	c3                   	retq   

0000000000401a1d <addval_480>:
  401a1d:	8d 87 48 8b e0 90    	lea    -0x6f1f74b8(%rdi),%eax
  401a23:	c3                   	retq   

0000000000401a24 <addval_427>:
  401a24:	8d 87 5e 89 ce 94    	lea    -0x6b3176a2(%rdi),%eax
  401a2a:	c3                   	retq   

0000000000401a2b <addval_163>:
  401a2b:	8d 87 48 89 e0 c3    	lea    -0x3c1f76b8(%rdi),%eax
  401a31:	c3                   	retq   

0000000000401a32 <addval_115>:
  401a32:	8d 87 89 ce 20 db    	lea    -0x24df3177(%rdi),%eax
  401a38:	c3                   	retq   

0000000000401a39 <setval_119>:
  401a39:	c7 07 89 c2 30 d2    	movl   $0xd230c289,(%rdi)
  401a3f:	c3                   	retq   

0000000000401a40 <getval_267>:
  401a40:	b8 48 89 e0 94       	mov    $0x94e08948,%eax
  401a45:	c3                   	retq   

0000000000401a46 <addval_131>:
  401a46:	8d 87 89 d1 28 c9    	lea    -0x36d72e77(%rdi),%eax
  401a4c:	c3                   	retq   

0000000000401a4d <addval_240>:
  401a4d:	8d 87 89 ce 92 c3    	lea    -0x3c6d3177(%rdi),%eax
  401a53:	c3                   	retq   

0000000000401a54 <setval_191>:
  401a54:	c7 07 89 d1 20 d2    	movl   $0xd220d189,(%rdi)
  401a5a:	c3                   	retq   

0000000000401a5b <getval_312>:
  401a5b:	b8 48 89 e0 91       	mov    $0x91e08948,%eax
  401a60:	c3                   	retq   

0000000000401a61 <setval_453>:
  401a61:	c7 07 99 c2 84 db    	movl   $0xdb84c299,(%rdi)
  401a67:	c3                   	retq   

0000000000401a68 <getval_483>:
  401a68:	b8 89 ce c4 d2       	mov    $0xd2c4ce89,%eax
  401a6d:	c3                   	retq   

0000000000401a6e <addval_435>:
  401a6e:	8d 87 48 89 e0 c3    	lea    -0x3c1f76b8(%rdi),%eax
  401a74:	c3                   	retq   

0000000000401a75 <addval_268>:
  401a75:	8d 87 81 d1 08 c9    	lea    -0x36f72e7f(%rdi),%eax
  401a7b:	c3                   	retq   

0000000000401a7c <getval_375>:
  401a7c:	b8 c9 d1 08 db       	mov    $0xdb08d1c9,%eax
  401a81:	c3                   	retq   

0000000000401a82 <setval_322>:
  401a82:	c7 07 89 c2 90 c1    	movl   $0xc190c289,(%rdi)
  401a88:	c3                   	retq   

0000000000401a89 <addval_310>:
  401a89:	8d 87 48 8d e0 c3    	lea    -0x3c1f72b8(%rdi),%eax
  401a8f:	c3                   	retq   

0000000000401a90 <setval_499>:
  401a90:	c7 07 89 c2 20 c9    	movl   $0xc920c289,(%rdi)
  401a96:	c3                   	retq   

0000000000401a97 <addval_116>:
  401a97:	8d 87 89 d1 18 db    	lea    -0x24e72e77(%rdi),%eax
  401a9d:	c3                   	retq   

0000000000401a9e <setval_356>:
  401a9e:	c7 07 b9 89 c2 90    	movl   $0x90c289b9,(%rdi)
  401aa4:	c3                   	retq   

0000000000401aa5 <addval_105>:
  401aa5:	8d 87 99 d1 20 db    	lea    -0x24df2e67(%rdi),%eax
  401aab:	c3                   	retq   

0000000000401aac <addval_137>:
  401aac:	8d 87 48 89 e0 c7    	lea    -0x381f76b8(%rdi),%eax
  401ab2:	c3                   	retq   

0000000000401ab3 <getval_223>:
  401ab3:	b8 89 ce 90 c3       	mov    $0xc390ce89,%eax
  401ab8:	c3                   	retq   

0000000000401ab9 <setval_159>:
  401ab9:	c7 07 99 c2 08 db    	movl   $0xdb08c299,(%rdi)
  401abf:	c3                   	retq   

0000000000401ac0 <addval_243>:
  401ac0:	8d 87 88 ce 38 c0    	lea    -0x3fc73178(%rdi),%eax
  401ac6:	c3                   	retq   

0000000000401ac7 <getval_392>:
  401ac7:	b8 99 c2 84 c9       	mov    $0xc984c299,%eax
  401acc:	c3                   	retq   

0000000000401acd <addval_459>:
  401acd:	8d 87 81 ce 20 db    	lea    -0x24df317f(%rdi),%eax
  401ad3:	c3                   	retq   

0000000000401ad4 <getval_325>:
  401ad4:	b8 8d ce 20 db       	mov    $0xdb20ce8d,%eax
  401ad9:	c3                   	retq   

0000000000401ada <setval_417>:
  401ada:	c7 07 8b d1 38 db    	movl   $0xdb38d18b,(%rdi)
  401ae0:	c3                   	retq   

0000000000401ae1 <setval_248>:
  401ae1:	c7 07 89 d1 84 c0    	movl   $0xc084d189,(%rdi)
  401ae7:	c3                   	retq   

0000000000401ae8 <addval_408>:
  401ae8:	8d 87 89 c2 00 db    	lea    -0x24ff3d77(%rdi),%eax
  401aee:	c3                   	retq   

0000000000401aef <setval_293>:
  401aef:	c7 07 48 8b e0 90    	movl   $0x90e08b48,(%rdi)
  401af5:	c3                   	retq   

0000000000401af6 <end_farm>:
  401af6:	b8 01 00 00 00       	mov    $0x1,%eax
  401afb:	c3                   	retq   

0000000000401afc <save_char>:
  401afc:	8b 05 22 46 20 00    	mov    0x204622(%rip),%eax        # 606124 <gets_cnt>
  401b02:	3d ff 03 00 00       	cmp    $0x3ff,%eax
  401b07:	7f 49                	jg     401b52 <save_char+0x56>
  401b09:	89 f9                	mov    %edi,%ecx
  401b0b:	c0 e9 04             	shr    $0x4,%cl
  401b0e:	8d 14 40             	lea    (%rax,%rax,2),%edx
  401b11:	83 e1 0f             	and    $0xf,%ecx
  401b14:	0f b6 b1 c0 34 40 00 	movzbl 0x4034c0(%rcx),%esi
  401b1b:	48 63 ca             	movslq %edx,%rcx
  401b1e:	40 88 b1 20 55 60 00 	mov    %sil,0x605520(%rcx)
  401b25:	8d 4a 01             	lea    0x1(%rdx),%ecx
  401b28:	83 e7 0f             	and    $0xf,%edi
  401b2b:	0f b6 b7 c0 34 40 00 	movzbl 0x4034c0(%rdi),%esi
  401b32:	48 63 c9             	movslq %ecx,%rcx
  401b35:	40 88 b1 20 55 60 00 	mov    %sil,0x605520(%rcx)
  401b3c:	83 c2 02             	add    $0x2,%edx
  401b3f:	48 63 d2             	movslq %edx,%rdx
  401b42:	c6 82 20 55 60 00 20 	movb   $0x20,0x605520(%rdx)
  401b49:	83 c0 01             	add    $0x1,%eax
  401b4c:	89 05 d2 45 20 00    	mov    %eax,0x2045d2(%rip)        # 606124 <gets_cnt>
  401b52:	f3 c3                	repz retq 

0000000000401b54 <save_term>:
  401b54:	8b 05 ca 45 20 00    	mov    0x2045ca(%rip),%eax        # 606124 <gets_cnt>
  401b5a:	8d 04 40             	lea    (%rax,%rax,2),%eax
  401b5d:	48 98                	cltq   
  401b5f:	c6 80 20 55 60 00 00 	movb   $0x0,0x605520(%rax)
  401b66:	c3                   	retq   

0000000000401b67 <check_fail>:
  401b67:	48 83 ec 08          	sub    $0x8,%rsp
  401b6b:	0f be 35 b6 45 20 00 	movsbl 0x2045b6(%rip),%esi        # 606128 <target_prefix>
  401b72:	b9 20 55 60 00       	mov    $0x605520,%ecx
  401b77:	8b 15 7b 39 20 00    	mov    0x20397b(%rip),%edx        # 6054f8 <check_level>
  401b7d:	bf c3 31 40 00       	mov    $0x4031c3,%edi
  401b82:	b8 00 00 00 00       	mov    $0x0,%eax
  401b87:	e8 04 f2 ff ff       	callq  400d90 <printf@plt>
  401b8c:	bf 01 00 00 00       	mov    $0x1,%edi
  401b91:	e8 4a f3 ff ff       	callq  400ee0 <exit@plt>

0000000000401b96 <Gets>:
  401b96:	41 54                	push   %r12
  401b98:	55                   	push   %rbp
  401b99:	53                   	push   %rbx
  401b9a:	49 89 fc             	mov    %rdi,%r12
  401b9d:	c7 05 7d 45 20 00 00 	movl   $0x0,0x20457d(%rip)        # 606124 <gets_cnt>
  401ba4:	00 00 00 
  401ba7:	48 89 fb             	mov    %rdi,%rbx
  401baa:	eb 11                	jmp    401bbd <Gets+0x27>
  401bac:	48 8d 6b 01          	lea    0x1(%rbx),%rbp
  401bb0:	88 03                	mov    %al,(%rbx)
  401bb2:	0f b6 f8             	movzbl %al,%edi
  401bb5:	e8 42 ff ff ff       	callq  401afc <save_char>
  401bba:	48 89 eb             	mov    %rbp,%rbx
  401bbd:	48 8b 3d 2c 39 20 00 	mov    0x20392c(%rip),%rdi        # 6054f0 <infile>
  401bc4:	e8 87 f2 ff ff       	callq  400e50 <_IO_getc@plt>
  401bc9:	83 f8 ff             	cmp    $0xffffffff,%eax
  401bcc:	74 05                	je     401bd3 <Gets+0x3d>
  401bce:	83 f8 0a             	cmp    $0xa,%eax
  401bd1:	75 d9                	jne    401bac <Gets+0x16>
  401bd3:	c6 03 00             	movb   $0x0,(%rbx)
  401bd6:	b8 00 00 00 00       	mov    $0x0,%eax
  401bdb:	e8 74 ff ff ff       	callq  401b54 <save_term>
  401be0:	4c 89 e0             	mov    %r12,%rax
  401be3:	5b                   	pop    %rbx
  401be4:	5d                   	pop    %rbp
  401be5:	41 5c                	pop    %r12
  401be7:	c3                   	retq   

0000000000401be8 <notify_server>:
  401be8:	83 3d 19 39 20 00 00 	cmpl   $0x0,0x203919(%rip)        # 605508 <is_checker>
  401bef:	0f 85 9a 01 00 00    	jne    401d8f <notify_server+0x1a7>
  401bf5:	55                   	push   %rbp
  401bf6:	53                   	push   %rbx
  401bf7:	48 81 ec 08 40 00 00 	sub    $0x4008,%rsp
  401bfe:	89 fb                	mov    %edi,%ebx
  401c00:	8b 05 1e 45 20 00    	mov    0x20451e(%rip),%eax        # 606124 <gets_cnt>
  401c06:	83 c0 64             	add    $0x64,%eax
  401c09:	3d 00 20 00 00       	cmp    $0x2000,%eax
  401c0e:	0f 8f b5 00 00 00    	jg     401cc9 <notify_server+0xe1>
  401c14:	44 0f be 0d 0c 45 20 	movsbl 0x20450c(%rip),%r9d        # 606128 <target_prefix>
  401c1b:	00 
  401c1c:	83 3d 65 38 20 00 00 	cmpl   $0x0,0x203865(%rip)        # 605488 <notify>
  401c23:	0f 84 b9 00 00 00    	je     401ce2 <notify_server+0xfa>
  401c29:	44 8b 05 d0 38 20 00 	mov    0x2038d0(%rip),%r8d        # 605500 <authkey>
  401c30:	85 db                	test   %ebx,%ebx
  401c32:	0f 84 b5 00 00 00    	je     401ced <notify_server+0x105>
  401c38:	bd d9 31 40 00       	mov    $0x4031d9,%ebp
  401c3d:	68 20 55 60 00       	pushq  $0x605520
  401c42:	56                   	push   %rsi
  401c43:	48 89 e9             	mov    %rbp,%rcx
  401c46:	8b 15 fc 34 20 00    	mov    0x2034fc(%rip),%edx        # 605148 <target_id>
  401c4c:	be e3 31 40 00       	mov    $0x4031e3,%esi
  401c51:	48 8d bc 24 10 20 00 	lea    0x2010(%rsp),%rdi
  401c58:	00 
  401c59:	b8 00 00 00 00       	mov    $0x0,%eax
  401c5e:	e8 6d f2 ff ff       	callq  400ed0 <sprintf@plt>
  401c63:	48 83 c4 10          	add    $0x10,%rsp
  401c67:	83 3d 1a 38 20 00 00 	cmpl   $0x0,0x20381a(%rip)        # 605488 <notify>
  401c6e:	0f 84 ab 00 00 00    	je     401d1f <notify_server+0x137>
  401c74:	85 db                	test   %ebx,%ebx
  401c76:	0f 84 97 00 00 00    	je     401d13 <notify_server+0x12b>
  401c7c:	49 89 e1             	mov    %rsp,%r9
  401c7f:	41 b8 00 00 00 00    	mov    $0x0,%r8d
  401c85:	48 8d 8c 24 00 20 00 	lea    0x2000(%rsp),%rcx
  401c8c:	00 
  401c8d:	48 8b 15 bc 34 20 00 	mov    0x2034bc(%rip),%rdx        # 605150 <lab>
  401c94:	48 8b 35 bd 34 20 00 	mov    0x2034bd(%rip),%rsi        # 605158 <course>
  401c9b:	48 8b 3d 9e 34 20 00 	mov    0x20349e(%rip),%rdi        # 605140 <user_id>
  401ca2:	e8 db 0f 00 00       	callq  402c82 <driver_post>
  401ca7:	85 c0                	test   %eax,%eax
  401ca9:	78 4c                	js     401cf7 <notify_server+0x10f>
  401cab:	bf 28 33 40 00       	mov    $0x403328,%edi
  401cb0:	e8 ab f0 ff ff       	callq  400d60 <puts@plt>
  401cb5:	bf 0b 32 40 00       	mov    $0x40320b,%edi
  401cba:	e8 a1 f0 ff ff       	callq  400d60 <puts@plt>
  401cbf:	48 81 c4 08 40 00 00 	add    $0x4008,%rsp
  401cc6:	5b                   	pop    %rbx
  401cc7:	5d                   	pop    %rbp
  401cc8:	c3                   	retq   
  401cc9:	bf f8 32 40 00       	mov    $0x4032f8,%edi
  401cce:	b8 00 00 00 00       	mov    $0x0,%eax
  401cd3:	e8 b8 f0 ff ff       	callq  400d90 <printf@plt>
  401cd8:	bf 01 00 00 00       	mov    $0x1,%edi
  401cdd:	e8 fe f1 ff ff       	callq  400ee0 <exit@plt>
  401ce2:	41 b8 ff ff ff ff    	mov    $0xffffffff,%r8d
  401ce8:	e9 43 ff ff ff       	jmpq   401c30 <notify_server+0x48>
  401ced:	bd de 31 40 00       	mov    $0x4031de,%ebp
  401cf2:	e9 46 ff ff ff       	jmpq   401c3d <notify_server+0x55>
  401cf7:	48 89 e6             	mov    %rsp,%rsi
  401cfa:	bf ff 31 40 00       	mov    $0x4031ff,%edi
  401cff:	b8 00 00 00 00       	mov    $0x0,%eax
  401d04:	e8 87 f0 ff ff       	callq  400d90 <printf@plt>
  401d09:	bf 01 00 00 00       	mov    $0x1,%edi
  401d0e:	e8 cd f1 ff ff       	callq  400ee0 <exit@plt>
  401d13:	bf 15 32 40 00       	mov    $0x403215,%edi
  401d18:	e8 43 f0 ff ff       	callq  400d60 <puts@plt>
  401d1d:	eb a0                	jmp    401cbf <notify_server+0xd7>
  401d1f:	48 89 ee             	mov    %rbp,%rsi
  401d22:	bf 60 33 40 00       	mov    $0x403360,%edi
  401d27:	b8 00 00 00 00       	mov    $0x0,%eax
  401d2c:	e8 5f f0 ff ff       	callq  400d90 <printf@plt>
  401d31:	48 8b 35 08 34 20 00 	mov    0x203408(%rip),%rsi        # 605140 <user_id>
  401d38:	bf 1c 32 40 00       	mov    $0x40321c,%edi
  401d3d:	b8 00 00 00 00       	mov    $0x0,%eax
  401d42:	e8 49 f0 ff ff       	callq  400d90 <printf@plt>
  401d47:	48 8b 35 0a 34 20 00 	mov    0x20340a(%rip),%rsi        # 605158 <course>
  401d4e:	bf 29 32 40 00       	mov    $0x403229,%edi
  401d53:	b8 00 00 00 00       	mov    $0x0,%eax
  401d58:	e8 33 f0 ff ff       	callq  400d90 <printf@plt>
  401d5d:	48 8b 35 ec 33 20 00 	mov    0x2033ec(%rip),%rsi        # 605150 <lab>
  401d64:	bf 35 32 40 00       	mov    $0x403235,%edi
  401d69:	b8 00 00 00 00       	mov    $0x0,%eax
  401d6e:	e8 1d f0 ff ff       	callq  400d90 <printf@plt>
  401d73:	48 8d b4 24 00 20 00 	lea    0x2000(%rsp),%rsi
  401d7a:	00 
  401d7b:	bf 3e 32 40 00       	mov    $0x40323e,%edi
  401d80:	b8 00 00 00 00       	mov    $0x0,%eax
  401d85:	e8 06 f0 ff ff       	callq  400d90 <printf@plt>
  401d8a:	e9 30 ff ff ff       	jmpq   401cbf <notify_server+0xd7>
  401d8f:	f3 c3                	repz retq 

0000000000401d91 <validate>:
  401d91:	53                   	push   %rbx
  401d92:	89 fb                	mov    %edi,%ebx
  401d94:	83 3d 6d 37 20 00 00 	cmpl   $0x0,0x20376d(%rip)        # 605508 <is_checker>
  401d9b:	74 60                	je     401dfd <validate+0x6c>
  401d9d:	39 3d 59 37 20 00    	cmp    %edi,0x203759(%rip)        # 6054fc <vlevel>
  401da3:	75 29                	jne    401dce <validate+0x3d>
  401da5:	8b 35 4d 37 20 00    	mov    0x20374d(%rip),%esi        # 6054f8 <check_level>
  401dab:	39 fe                	cmp    %edi,%esi
  401dad:	75 33                	jne    401de2 <validate+0x51>
  401daf:	0f be 35 72 43 20 00 	movsbl 0x204372(%rip),%esi        # 606128 <target_prefix>
  401db6:	b9 20 55 60 00       	mov    $0x605520,%ecx
  401dbb:	89 fa                	mov    %edi,%edx
  401dbd:	bf 68 32 40 00       	mov    $0x403268,%edi
  401dc2:	b8 00 00 00 00       	mov    $0x0,%eax
  401dc7:	e8 c4 ef ff ff       	callq  400d90 <printf@plt>
  401dcc:	5b                   	pop    %rbx
  401dcd:	c3                   	retq   
  401dce:	bf 4a 32 40 00       	mov    $0x40324a,%edi
  401dd3:	e8 88 ef ff ff       	callq  400d60 <puts@plt>
  401dd8:	b8 00 00 00 00       	mov    $0x0,%eax
  401ddd:	e8 85 fd ff ff       	callq  401b67 <check_fail>
  401de2:	89 fa                	mov    %edi,%edx
  401de4:	bf 88 33 40 00       	mov    $0x403388,%edi
  401de9:	b8 00 00 00 00       	mov    $0x0,%eax
  401dee:	e8 9d ef ff ff       	callq  400d90 <printf@plt>
  401df3:	b8 00 00 00 00       	mov    $0x0,%eax
  401df8:	e8 6a fd ff ff       	callq  401b67 <check_fail>
  401dfd:	39 3d f9 36 20 00    	cmp    %edi,0x2036f9(%rip)        # 6054fc <vlevel>
  401e03:	74 18                	je     401e1d <validate+0x8c>
  401e05:	bf 4a 32 40 00       	mov    $0x40324a,%edi
  401e0a:	e8 51 ef ff ff       	callq  400d60 <puts@plt>
  401e0f:	89 de                	mov    %ebx,%esi
  401e11:	bf 00 00 00 00       	mov    $0x0,%edi
  401e16:	e8 cd fd ff ff       	callq  401be8 <notify_server>
  401e1b:	eb af                	jmp    401dcc <validate+0x3b>
  401e1d:	0f be 15 04 43 20 00 	movsbl 0x204304(%rip),%edx        # 606128 <target_prefix>
  401e24:	89 fe                	mov    %edi,%esi
  401e26:	bf b0 33 40 00       	mov    $0x4033b0,%edi
  401e2b:	b8 00 00 00 00       	mov    $0x0,%eax
  401e30:	e8 5b ef ff ff       	callq  400d90 <printf@plt>
  401e35:	89 de                	mov    %ebx,%esi
  401e37:	bf 01 00 00 00       	mov    $0x1,%edi
  401e3c:	e8 a7 fd ff ff       	callq  401be8 <notify_server>
  401e41:	eb 89                	jmp    401dcc <validate+0x3b>

0000000000401e43 <fail>:
  401e43:	48 83 ec 08          	sub    $0x8,%rsp
  401e47:	83 3d ba 36 20 00 00 	cmpl   $0x0,0x2036ba(%rip)        # 605508 <is_checker>
  401e4e:	75 11                	jne    401e61 <fail+0x1e>
  401e50:	89 fe                	mov    %edi,%esi
  401e52:	bf 00 00 00 00       	mov    $0x0,%edi
  401e57:	e8 8c fd ff ff       	callq  401be8 <notify_server>
  401e5c:	48 83 c4 08          	add    $0x8,%rsp
  401e60:	c3                   	retq   
  401e61:	b8 00 00 00 00       	mov    $0x0,%eax
  401e66:	e8 fc fc ff ff       	callq  401b67 <check_fail>

0000000000401e6b <bushandler>:
  401e6b:	48 83 ec 08          	sub    $0x8,%rsp
  401e6f:	83 3d 92 36 20 00 00 	cmpl   $0x0,0x203692(%rip)        # 605508 <is_checker>
  401e76:	74 14                	je     401e8c <bushandler+0x21>
  401e78:	bf 7d 32 40 00       	mov    $0x40327d,%edi
  401e7d:	e8 de ee ff ff       	callq  400d60 <puts@plt>
  401e82:	b8 00 00 00 00       	mov    $0x0,%eax
  401e87:	e8 db fc ff ff       	callq  401b67 <check_fail>
  401e8c:	bf e8 33 40 00       	mov    $0x4033e8,%edi
  401e91:	e8 ca ee ff ff       	callq  400d60 <puts@plt>
  401e96:	bf 87 32 40 00       	mov    $0x403287,%edi
  401e9b:	e8 c0 ee ff ff       	callq  400d60 <puts@plt>
  401ea0:	be 00 00 00 00       	mov    $0x0,%esi
  401ea5:	bf 00 00 00 00       	mov    $0x0,%edi
  401eaa:	e8 39 fd ff ff       	callq  401be8 <notify_server>
  401eaf:	bf 01 00 00 00       	mov    $0x1,%edi
  401eb4:	e8 27 f0 ff ff       	callq  400ee0 <exit@plt>

0000000000401eb9 <seghandler>:
  401eb9:	48 83 ec 08          	sub    $0x8,%rsp
  401ebd:	83 3d 44 36 20 00 00 	cmpl   $0x0,0x203644(%rip)        # 605508 <is_checker>
  401ec4:	74 14                	je     401eda <seghandler+0x21>
  401ec6:	bf 9d 32 40 00       	mov    $0x40329d,%edi
  401ecb:	e8 90 ee ff ff       	callq  400d60 <puts@plt>
  401ed0:	b8 00 00 00 00       	mov    $0x0,%eax
  401ed5:	e8 8d fc ff ff       	callq  401b67 <check_fail>
  401eda:	bf 08 34 40 00       	mov    $0x403408,%edi
  401edf:	e8 7c ee ff ff       	callq  400d60 <puts@plt>
  401ee4:	bf 87 32 40 00       	mov    $0x403287,%edi
  401ee9:	e8 72 ee ff ff       	callq  400d60 <puts@plt>
  401eee:	be 00 00 00 00       	mov    $0x0,%esi
  401ef3:	bf 00 00 00 00       	mov    $0x0,%edi
  401ef8:	e8 eb fc ff ff       	callq  401be8 <notify_server>
  401efd:	bf 01 00 00 00       	mov    $0x1,%edi
  401f02:	e8 d9 ef ff ff       	callq  400ee0 <exit@plt>

0000000000401f07 <illegalhandler>:
  401f07:	48 83 ec 08          	sub    $0x8,%rsp
  401f0b:	83 3d f6 35 20 00 00 	cmpl   $0x0,0x2035f6(%rip)        # 605508 <is_checker>
  401f12:	74 14                	je     401f28 <illegalhandler+0x21>
  401f14:	bf b0 32 40 00       	mov    $0x4032b0,%edi
  401f19:	e8 42 ee ff ff       	callq  400d60 <puts@plt>
  401f1e:	b8 00 00 00 00       	mov    $0x0,%eax
  401f23:	e8 3f fc ff ff       	callq  401b67 <check_fail>
  401f28:	bf 30 34 40 00       	mov    $0x403430,%edi
  401f2d:	e8 2e ee ff ff       	callq  400d60 <puts@plt>
  401f32:	bf 87 32 40 00       	mov    $0x403287,%edi
  401f37:	e8 24 ee ff ff       	callq  400d60 <puts@plt>
  401f3c:	be 00 00 00 00       	mov    $0x0,%esi
  401f41:	bf 00 00 00 00       	mov    $0x0,%edi
  401f46:	e8 9d fc ff ff       	callq  401be8 <notify_server>
  401f4b:	bf 01 00 00 00       	mov    $0x1,%edi
  401f50:	e8 8b ef ff ff       	callq  400ee0 <exit@plt>

0000000000401f55 <sigalrmhandler>:
  401f55:	48 83 ec 08          	sub    $0x8,%rsp
  401f59:	83 3d a8 35 20 00 00 	cmpl   $0x0,0x2035a8(%rip)        # 605508 <is_checker>
  401f60:	74 14                	je     401f76 <sigalrmhandler+0x21>
  401f62:	bf c4 32 40 00       	mov    $0x4032c4,%edi
  401f67:	e8 f4 ed ff ff       	callq  400d60 <puts@plt>
  401f6c:	b8 00 00 00 00       	mov    $0x0,%eax
  401f71:	e8 f1 fb ff ff       	callq  401b67 <check_fail>
  401f76:	be 05 00 00 00       	mov    $0x5,%esi
  401f7b:	bf 60 34 40 00       	mov    $0x403460,%edi
  401f80:	b8 00 00 00 00       	mov    $0x0,%eax
  401f85:	e8 06 ee ff ff       	callq  400d90 <printf@plt>
  401f8a:	be 00 00 00 00       	mov    $0x0,%esi
  401f8f:	bf 00 00 00 00       	mov    $0x0,%edi
  401f94:	e8 4f fc ff ff       	callq  401be8 <notify_server>
  401f99:	bf 01 00 00 00       	mov    $0x1,%edi
  401f9e:	e8 3d ef ff ff       	callq  400ee0 <exit@plt>

0000000000401fa3 <launch>:
  401fa3:	55                   	push   %rbp
  401fa4:	48 89 e5             	mov    %rsp,%rbp
  401fa7:	48 89 fa             	mov    %rdi,%rdx
  401faa:	48 8d 47 1e          	lea    0x1e(%rdi),%rax
  401fae:	48 83 e0 f0          	and    $0xfffffffffffffff0,%rax
  401fb2:	48 29 c4             	sub    %rax,%rsp
  401fb5:	48 8d 7c 24 0f       	lea    0xf(%rsp),%rdi
  401fba:	48 83 e7 f0          	and    $0xfffffffffffffff0,%rdi
  401fbe:	be f4 00 00 00       	mov    $0xf4,%esi
  401fc3:	e8 d8 ed ff ff       	callq  400da0 <memset@plt>
  401fc8:	48 8b 05 d1 34 20 00 	mov    0x2034d1(%rip),%rax        # 6054a0 <stdin@@GLIBC_2.2.5>
  401fcf:	48 39 05 1a 35 20 00 	cmp    %rax,0x20351a(%rip)        # 6054f0 <infile>
  401fd6:	74 29                	je     402001 <launch+0x5e>
  401fd8:	c7 05 1a 35 20 00 00 	movl   $0x0,0x20351a(%rip)        # 6054fc <vlevel>
  401fdf:	00 00 00 
  401fe2:	b8 00 00 00 00       	mov    $0x0,%eax
  401fe7:	e8 c7 f9 ff ff       	callq  4019b3 <test>
  401fec:	83 3d 15 35 20 00 00 	cmpl   $0x0,0x203515(%rip)        # 605508 <is_checker>
  401ff3:	75 1d                	jne    402012 <launch+0x6f>
  401ff5:	bf e4 32 40 00       	mov    $0x4032e4,%edi
  401ffa:	e8 61 ed ff ff       	callq  400d60 <puts@plt>
  401fff:	c9                   	leaveq 
  402000:	c3                   	retq   
  402001:	bf cc 32 40 00       	mov    $0x4032cc,%edi
  402006:	b8 00 00 00 00       	mov    $0x0,%eax
  40200b:	e8 80 ed ff ff       	callq  400d90 <printf@plt>
  402010:	eb c6                	jmp    401fd8 <launch+0x35>
  402012:	bf d9 32 40 00       	mov    $0x4032d9,%edi
  402017:	e8 44 ed ff ff       	callq  400d60 <puts@plt>
  40201c:	b8 00 00 00 00       	mov    $0x0,%eax
  402021:	e8 41 fb ff ff       	callq  401b67 <check_fail>

0000000000402026 <stable_launch>:
  402026:	53                   	push   %rbx
  402027:	48 89 3d ba 34 20 00 	mov    %rdi,0x2034ba(%rip)        # 6054e8 <global_offset>
  40202e:	41 b9 00 00 00 00    	mov    $0x0,%r9d
  402034:	41 b8 00 00 00 00    	mov    $0x0,%r8d
  40203a:	b9 32 01 00 00       	mov    $0x132,%ecx
  40203f:	ba 07 00 00 00       	mov    $0x7,%edx
  402044:	be 00 00 10 00       	mov    $0x100000,%esi
  402049:	bf 00 60 58 55       	mov    $0x55586000,%edi
  40204e:	e8 2d ed ff ff       	callq  400d80 <mmap@plt>
  402053:	48 89 c3             	mov    %rax,%rbx
  402056:	48 3d 00 60 58 55    	cmp    $0x55586000,%rax
  40205c:	75 43                	jne    4020a1 <stable_launch+0x7b>
  40205e:	48 8d 90 f8 ff 0f 00 	lea    0xffff8(%rax),%rdx
  402065:	48 89 15 c4 40 20 00 	mov    %rdx,0x2040c4(%rip)        # 606130 <stack_top>
  40206c:	48 89 e0             	mov    %rsp,%rax
  40206f:	48 89 d4             	mov    %rdx,%rsp
  402072:	48 89 c2             	mov    %rax,%rdx
  402075:	48 89 15 64 34 20 00 	mov    %rdx,0x203464(%rip)        # 6054e0 <global_save_stack>
  40207c:	48 8b 3d 65 34 20 00 	mov    0x203465(%rip),%rdi        # 6054e8 <global_offset>
  402083:	e8 1b ff ff ff       	callq  401fa3 <launch>
  402088:	48 8b 05 51 34 20 00 	mov    0x203451(%rip),%rax        # 6054e0 <global_save_stack>
  40208f:	48 89 c4             	mov    %rax,%rsp
  402092:	be 00 00 10 00       	mov    $0x100000,%esi
  402097:	48 89 df             	mov    %rbx,%rdi
  40209a:	e8 d1 ed ff ff       	callq  400e70 <munmap@plt>
  40209f:	5b                   	pop    %rbx
  4020a0:	c3                   	retq   
  4020a1:	be 00 00 10 00       	mov    $0x100000,%esi
  4020a6:	48 89 c7             	mov    %rax,%rdi
  4020a9:	e8 c2 ed ff ff       	callq  400e70 <munmap@plt>
  4020ae:	ba 00 60 58 55       	mov    $0x55586000,%edx
  4020b3:	be 98 34 40 00       	mov    $0x403498,%esi
  4020b8:	48 8b 3d 01 34 20 00 	mov    0x203401(%rip),%rdi        # 6054c0 <stderr@@GLIBC_2.2.5>
  4020bf:	b8 00 00 00 00       	mov    $0x0,%eax
  4020c4:	e8 37 ed ff ff       	callq  400e00 <fprintf@plt>
  4020c9:	bf 01 00 00 00       	mov    $0x1,%edi
  4020ce:	e8 0d ee ff ff       	callq  400ee0 <exit@plt>

00000000004020d3 <rio_readinitb>:
  4020d3:	89 37                	mov    %esi,(%rdi)
  4020d5:	c7 47 04 00 00 00 00 	movl   $0x0,0x4(%rdi)
  4020dc:	48 8d 47 10          	lea    0x10(%rdi),%rax
  4020e0:	48 89 47 08          	mov    %rax,0x8(%rdi)
  4020e4:	c3                   	retq   

00000000004020e5 <sigalrm_handler>:
  4020e5:	48 83 ec 08          	sub    $0x8,%rsp
  4020e9:	ba 00 00 00 00       	mov    $0x0,%edx
  4020ee:	be d0 34 40 00       	mov    $0x4034d0,%esi
  4020f3:	48 8b 3d c6 33 20 00 	mov    0x2033c6(%rip),%rdi        # 6054c0 <stderr@@GLIBC_2.2.5>
  4020fa:	b8 00 00 00 00       	mov    $0x0,%eax
  4020ff:	e8 fc ec ff ff       	callq  400e00 <fprintf@plt>
  402104:	bf 01 00 00 00       	mov    $0x1,%edi
  402109:	e8 d2 ed ff ff       	callq  400ee0 <exit@plt>

000000000040210e <urlencode>:
  40210e:	41 54                	push   %r12
  402110:	55                   	push   %rbp
  402111:	53                   	push   %rbx
  402112:	48 83 ec 10          	sub    $0x10,%rsp
  402116:	48 89 fb             	mov    %rdi,%rbx
  402119:	48 89 f5             	mov    %rsi,%rbp
  40211c:	48 c7 c1 ff ff ff ff 	mov    $0xffffffffffffffff,%rcx
  402123:	b8 00 00 00 00       	mov    $0x0,%eax
  402128:	f2 ae                	repnz scas %es:(%rdi),%al
  40212a:	48 89 ce             	mov    %rcx,%rsi
  40212d:	48 f7 d6             	not    %rsi
  402130:	8d 46 ff             	lea    -0x1(%rsi),%eax
  402133:	eb 0e                	jmp    402143 <urlencode+0x35>
  402135:	88 45 00             	mov    %al,0x0(%rbp)
  402138:	48 8d 6d 01          	lea    0x1(%rbp),%rbp
  40213c:	48 83 c3 01          	add    $0x1,%rbx
  402140:	44 89 e0             	mov    %r12d,%eax
  402143:	44 8d 60 ff          	lea    -0x1(%rax),%r12d
  402147:	85 c0                	test   %eax,%eax
  402149:	0f 84 91 00 00 00    	je     4021e0 <urlencode+0xd2>
  40214f:	0f b6 03             	movzbl (%rbx),%eax
  402152:	3c 2a                	cmp    $0x2a,%al
  402154:	0f 94 c1             	sete   %cl
  402157:	3c 2d                	cmp    $0x2d,%al
  402159:	0f 94 c2             	sete   %dl
  40215c:	08 d1                	or     %dl,%cl
  40215e:	75 d5                	jne    402135 <urlencode+0x27>
  402160:	3c 2e                	cmp    $0x2e,%al
  402162:	74 d1                	je     402135 <urlencode+0x27>
  402164:	3c 5f                	cmp    $0x5f,%al
  402166:	74 cd                	je     402135 <urlencode+0x27>
  402168:	8d 50 d0             	lea    -0x30(%rax),%edx
  40216b:	80 fa 09             	cmp    $0x9,%dl
  40216e:	76 c5                	jbe    402135 <urlencode+0x27>
  402170:	8d 50 bf             	lea    -0x41(%rax),%edx
  402173:	80 fa 19             	cmp    $0x19,%dl
  402176:	76 bd                	jbe    402135 <urlencode+0x27>
  402178:	8d 50 9f             	lea    -0x61(%rax),%edx
  40217b:	80 fa 19             	cmp    $0x19,%dl
  40217e:	76 b5                	jbe    402135 <urlencode+0x27>
  402180:	3c 20                	cmp    $0x20,%al
  402182:	74 4a                	je     4021ce <urlencode+0xc0>
  402184:	8d 50 e0             	lea    -0x20(%rax),%edx
  402187:	80 fa 5f             	cmp    $0x5f,%dl
  40218a:	0f 96 c1             	setbe  %cl
  40218d:	3c 09                	cmp    $0x9,%al
  40218f:	0f 94 c2             	sete   %dl
  402192:	08 d1                	or     %dl,%cl
  402194:	74 45                	je     4021db <urlencode+0xcd>
  402196:	0f b6 d0             	movzbl %al,%edx
  402199:	be 68 35 40 00       	mov    $0x403568,%esi
  40219e:	48 8d 7c 24 08       	lea    0x8(%rsp),%rdi
  4021a3:	b8 00 00 00 00       	mov    $0x0,%eax
  4021a8:	e8 23 ed ff ff       	callq  400ed0 <sprintf@plt>
  4021ad:	0f b6 44 24 08       	movzbl 0x8(%rsp),%eax
  4021b2:	88 45 00             	mov    %al,0x0(%rbp)
  4021b5:	0f b6 44 24 09       	movzbl 0x9(%rsp),%eax
  4021ba:	88 45 01             	mov    %al,0x1(%rbp)
  4021bd:	0f b6 44 24 0a       	movzbl 0xa(%rsp),%eax
  4021c2:	88 45 02             	mov    %al,0x2(%rbp)
  4021c5:	48 8d 6d 03          	lea    0x3(%rbp),%rbp
  4021c9:	e9 6e ff ff ff       	jmpq   40213c <urlencode+0x2e>
  4021ce:	c6 45 00 2b          	movb   $0x2b,0x0(%rbp)
  4021d2:	48 8d 6d 01          	lea    0x1(%rbp),%rbp
  4021d6:	e9 61 ff ff ff       	jmpq   40213c <urlencode+0x2e>
  4021db:	b8 ff ff ff ff       	mov    $0xffffffff,%eax
  4021e0:	48 83 c4 10          	add    $0x10,%rsp
  4021e4:	5b                   	pop    %rbx
  4021e5:	5d                   	pop    %rbp
  4021e6:	41 5c                	pop    %r12
  4021e8:	c3                   	retq   

00000000004021e9 <rio_writen>:
  4021e9:	41 55                	push   %r13
  4021eb:	41 54                	push   %r12
  4021ed:	55                   	push   %rbp
  4021ee:	53                   	push   %rbx
  4021ef:	48 83 ec 08          	sub    $0x8,%rsp
  4021f3:	41 89 fc             	mov    %edi,%r12d
  4021f6:	48 89 f5             	mov    %rsi,%rbp
  4021f9:	49 89 d5             	mov    %rdx,%r13
  4021fc:	48 89 d3             	mov    %rdx,%rbx
  4021ff:	eb 06                	jmp    402207 <rio_writen+0x1e>
  402201:	48 29 c3             	sub    %rax,%rbx
  402204:	48 01 c5             	add    %rax,%rbp
  402207:	48 85 db             	test   %rbx,%rbx
  40220a:	74 24                	je     402230 <rio_writen+0x47>
  40220c:	48 89 da             	mov    %rbx,%rdx
  40220f:	48 89 ee             	mov    %rbp,%rsi
  402212:	44 89 e7             	mov    %r12d,%edi
  402215:	e8 56 eb ff ff       	callq  400d70 <write@plt>
  40221a:	48 85 c0             	test   %rax,%rax
  40221d:	7f e2                	jg     402201 <rio_writen+0x18>
  40221f:	e8 fc ea ff ff       	callq  400d20 <__errno_location@plt>
  402224:	83 38 04             	cmpl   $0x4,(%rax)
  402227:	75 15                	jne    40223e <rio_writen+0x55>
  402229:	b8 00 00 00 00       	mov    $0x0,%eax
  40222e:	eb d1                	jmp    402201 <rio_writen+0x18>
  402230:	4c 89 e8             	mov    %r13,%rax
  402233:	48 83 c4 08          	add    $0x8,%rsp
  402237:	5b                   	pop    %rbx
  402238:	5d                   	pop    %rbp
  402239:	41 5c                	pop    %r12
  40223b:	41 5d                	pop    %r13
  40223d:	c3                   	retq   
  40223e:	48 c7 c0 ff ff ff ff 	mov    $0xffffffffffffffff,%rax
  402245:	eb ec                	jmp    402233 <rio_writen+0x4a>

0000000000402247 <rio_read>:
  402247:	41 55                	push   %r13
  402249:	41 54                	push   %r12
  40224b:	55                   	push   %rbp
  40224c:	53                   	push   %rbx
  40224d:	48 83 ec 08          	sub    $0x8,%rsp
  402251:	48 89 fb             	mov    %rdi,%rbx
  402254:	49 89 f5             	mov    %rsi,%r13
  402257:	49 89 d4             	mov    %rdx,%r12
  40225a:	eb 0a                	jmp    402266 <rio_read+0x1f>
  40225c:	e8 bf ea ff ff       	callq  400d20 <__errno_location@plt>
  402261:	83 38 04             	cmpl   $0x4,(%rax)
  402264:	75 5c                	jne    4022c2 <rio_read+0x7b>
  402266:	8b 6b 04             	mov    0x4(%rbx),%ebp
  402269:	85 ed                	test   %ebp,%ebp
  40226b:	7f 24                	jg     402291 <rio_read+0x4a>
  40226d:	48 8d 6b 10          	lea    0x10(%rbx),%rbp
  402271:	ba 00 20 00 00       	mov    $0x2000,%edx
  402276:	48 89 ee             	mov    %rbp,%rsi
  402279:	8b 3b                	mov    (%rbx),%edi
  40227b:	e8 50 eb ff ff       	callq  400dd0 <read@plt>
  402280:	89 43 04             	mov    %eax,0x4(%rbx)
  402283:	85 c0                	test   %eax,%eax
  402285:	78 d5                	js     40225c <rio_read+0x15>
  402287:	85 c0                	test   %eax,%eax
  402289:	74 40                	je     4022cb <rio_read+0x84>
  40228b:	48 89 6b 08          	mov    %rbp,0x8(%rbx)
  40228f:	eb d5                	jmp    402266 <rio_read+0x1f>
  402291:	89 e8                	mov    %ebp,%eax
  402293:	4c 39 e0             	cmp    %r12,%rax
  402296:	72 03                	jb     40229b <rio_read+0x54>
  402298:	44 89 e5             	mov    %r12d,%ebp
  40229b:	4c 63 e5             	movslq %ebp,%r12
  40229e:	48 8b 73 08          	mov    0x8(%rbx),%rsi
  4022a2:	4c 89 e2             	mov    %r12,%rdx
  4022a5:	4c 89 ef             	mov    %r13,%rdi
  4022a8:	e8 73 eb ff ff       	callq  400e20 <memcpy@plt>
  4022ad:	4c 01 63 08          	add    %r12,0x8(%rbx)
  4022b1:	29 6b 04             	sub    %ebp,0x4(%rbx)
  4022b4:	4c 89 e0             	mov    %r12,%rax
  4022b7:	48 83 c4 08          	add    $0x8,%rsp
  4022bb:	5b                   	pop    %rbx
  4022bc:	5d                   	pop    %rbp
  4022bd:	41 5c                	pop    %r12
  4022bf:	41 5d                	pop    %r13
  4022c1:	c3                   	retq   
  4022c2:	48 c7 c0 ff ff ff ff 	mov    $0xffffffffffffffff,%rax
  4022c9:	eb ec                	jmp    4022b7 <rio_read+0x70>
  4022cb:	b8 00 00 00 00       	mov    $0x0,%eax
  4022d0:	eb e5                	jmp    4022b7 <rio_read+0x70>

00000000004022d2 <rio_readlineb>:
  4022d2:	41 55                	push   %r13
  4022d4:	41 54                	push   %r12
  4022d6:	55                   	push   %rbp
  4022d7:	53                   	push   %rbx
  4022d8:	48 83 ec 18          	sub    $0x18,%rsp
  4022dc:	49 89 fd             	mov    %rdi,%r13
  4022df:	48 89 f5             	mov    %rsi,%rbp
  4022e2:	49 89 d4             	mov    %rdx,%r12
  4022e5:	bb 01 00 00 00       	mov    $0x1,%ebx
  4022ea:	4c 39 e3             	cmp    %r12,%rbx
  4022ed:	73 47                	jae    402336 <rio_readlineb+0x64>
  4022ef:	ba 01 00 00 00       	mov    $0x1,%edx
  4022f4:	48 8d 74 24 0f       	lea    0xf(%rsp),%rsi
  4022f9:	4c 89 ef             	mov    %r13,%rdi
  4022fc:	e8 46 ff ff ff       	callq  402247 <rio_read>
  402301:	83 f8 01             	cmp    $0x1,%eax
  402304:	75 1c                	jne    402322 <rio_readlineb+0x50>
  402306:	48 8d 45 01          	lea    0x1(%rbp),%rax
  40230a:	0f b6 54 24 0f       	movzbl 0xf(%rsp),%edx
  40230f:	88 55 00             	mov    %dl,0x0(%rbp)
  402312:	80 7c 24 0f 0a       	cmpb   $0xa,0xf(%rsp)
  402317:	74 1a                	je     402333 <rio_readlineb+0x61>
  402319:	48 83 c3 01          	add    $0x1,%rbx
  40231d:	48 89 c5             	mov    %rax,%rbp
  402320:	eb c8                	jmp    4022ea <rio_readlineb+0x18>
  402322:	85 c0                	test   %eax,%eax
  402324:	75 22                	jne    402348 <rio_readlineb+0x76>
  402326:	48 83 fb 01          	cmp    $0x1,%rbx
  40232a:	75 0a                	jne    402336 <rio_readlineb+0x64>
  40232c:	b8 00 00 00 00       	mov    $0x0,%eax
  402331:	eb 0a                	jmp    40233d <rio_readlineb+0x6b>
  402333:	48 89 c5             	mov    %rax,%rbp
  402336:	c6 45 00 00          	movb   $0x0,0x0(%rbp)
  40233a:	48 89 d8             	mov    %rbx,%rax
  40233d:	48 83 c4 18          	add    $0x18,%rsp
  402341:	5b                   	pop    %rbx
  402342:	5d                   	pop    %rbp
  402343:	41 5c                	pop    %r12
  402345:	41 5d                	pop    %r13
  402347:	c3                   	retq   
  402348:	48 c7 c0 ff ff ff ff 	mov    $0xffffffffffffffff,%rax
  40234f:	eb ec                	jmp    40233d <rio_readlineb+0x6b>

0000000000402351 <submitr>:
  402351:	41 57                	push   %r15
  402353:	41 56                	push   %r14
  402355:	41 55                	push   %r13
  402357:	41 54                	push   %r12
  402359:	55                   	push   %rbp
  40235a:	53                   	push   %rbx
  40235b:	48 81 ec 48 a0 00 00 	sub    $0xa048,%rsp
  402362:	49 89 fc             	mov    %rdi,%r12
  402365:	89 74 24 04          	mov    %esi,0x4(%rsp)
  402369:	49 89 d7             	mov    %rdx,%r15
  40236c:	49 89 ce             	mov    %rcx,%r14
  40236f:	4c 89 44 24 08       	mov    %r8,0x8(%rsp)
  402374:	4d 89 cd             	mov    %r9,%r13
  402377:	48 8b ac 24 80 a0 00 	mov    0xa080(%rsp),%rbp
  40237e:	00 
  40237f:	c7 84 24 1c 20 00 00 	movl   $0x0,0x201c(%rsp)
  402386:	00 00 00 00 
  40238a:	ba 00 00 00 00       	mov    $0x0,%edx
  40238f:	be 01 00 00 00       	mov    $0x1,%esi
  402394:	bf 02 00 00 00       	mov    $0x2,%edi
  402399:	e8 62 eb ff ff       	callq  400f00 <socket@plt>
  40239e:	85 c0                	test   %eax,%eax
  4023a0:	0f 88 86 02 00 00    	js     40262c <submitr+0x2db>
  4023a6:	89 c3                	mov    %eax,%ebx
  4023a8:	4c 89 e7             	mov    %r12,%rdi
  4023ab:	e8 40 ea ff ff       	callq  400df0 <gethostbyname@plt>
  4023b0:	48 85 c0             	test   %rax,%rax
  4023b3:	0f 84 bf 02 00 00    	je     402678 <submitr+0x327>
  4023b9:	48 c7 84 24 30 a0 00 	movq   $0x0,0xa030(%rsp)
  4023c0:	00 00 00 00 00 
  4023c5:	48 c7 84 24 38 a0 00 	movq   $0x0,0xa038(%rsp)
  4023cc:	00 00 00 00 00 
  4023d1:	66 c7 84 24 30 a0 00 	movw   $0x2,0xa030(%rsp)
  4023d8:	00 02 00 
  4023db:	48 8b 48 18          	mov    0x18(%rax),%rcx
  4023df:	48 63 50 14          	movslq 0x14(%rax),%rdx
  4023e3:	48 8d b4 24 34 a0 00 	lea    0xa034(%rsp),%rsi
  4023ea:	00 
  4023eb:	48 8b 39             	mov    (%rcx),%rdi
  4023ee:	e8 8d ea ff ff       	callq  400e80 <bcopy@plt>
  4023f3:	0f b7 44 24 04       	movzwl 0x4(%rsp),%eax
  4023f8:	66 c1 c8 08          	ror    $0x8,%ax
  4023fc:	66 89 84 24 32 a0 00 	mov    %ax,0xa032(%rsp)
  402403:	00 
  402404:	ba 10 00 00 00       	mov    $0x10,%edx
  402409:	48 8d b4 24 30 a0 00 	lea    0xa030(%rsp),%rsi
  402410:	00 
  402411:	89 df                	mov    %ebx,%edi
  402413:	e8 d8 ea ff ff       	callq  400ef0 <connect@plt>
  402418:	85 c0                	test   %eax,%eax
  40241a:	0f 88 c0 02 00 00    	js     4026e0 <submitr+0x38f>
  402420:	48 c7 c6 ff ff ff ff 	mov    $0xffffffffffffffff,%rsi
  402427:	b8 00 00 00 00       	mov    $0x0,%eax
  40242c:	48 89 f1             	mov    %rsi,%rcx
  40242f:	4c 89 ef             	mov    %r13,%rdi
  402432:	f2 ae                	repnz scas %es:(%rdi),%al
  402434:	48 89 ca             	mov    %rcx,%rdx
  402437:	48 f7 d2             	not    %rdx
  40243a:	48 89 f1             	mov    %rsi,%rcx
  40243d:	4c 89 ff             	mov    %r15,%rdi
  402440:	f2 ae                	repnz scas %es:(%rdi),%al
  402442:	48 f7 d1             	not    %rcx
  402445:	49 89 c8             	mov    %rcx,%r8
  402448:	48 89 f1             	mov    %rsi,%rcx
  40244b:	4c 89 f7             	mov    %r14,%rdi
  40244e:	f2 ae                	repnz scas %es:(%rdi),%al
  402450:	48 f7 d1             	not    %rcx
  402453:	4d 8d 44 08 fe       	lea    -0x2(%r8,%rcx,1),%r8
  402458:	48 89 f1             	mov    %rsi,%rcx
  40245b:	48 8b 7c 24 08       	mov    0x8(%rsp),%rdi
  402460:	f2 ae                	repnz scas %es:(%rdi),%al
  402462:	48 89 c8             	mov    %rcx,%rax
  402465:	48 f7 d0             	not    %rax
  402468:	49 8d 4c 00 ff       	lea    -0x1(%r8,%rax,1),%rcx
  40246d:	48 8d 44 52 fd       	lea    -0x3(%rdx,%rdx,2),%rax
  402472:	48 8d 84 01 80 00 00 	lea    0x80(%rcx,%rax,1),%rax
  402479:	00 
  40247a:	48 3d 00 20 00 00    	cmp    $0x2000,%rax
  402480:	0f 87 b4 02 00 00    	ja     40273a <submitr+0x3e9>
  402486:	48 8d b4 24 20 40 00 	lea    0x4020(%rsp),%rsi
  40248d:	00 
  40248e:	b9 00 04 00 00       	mov    $0x400,%ecx
  402493:	b8 00 00 00 00       	mov    $0x0,%eax
  402498:	48 89 f7             	mov    %rsi,%rdi
  40249b:	f3 48 ab             	rep stos %rax,%es:(%rdi)
  40249e:	4c 89 ef             	mov    %r13,%rdi
  4024a1:	e8 68 fc ff ff       	callq  40210e <urlencode>
  4024a6:	85 c0                	test   %eax,%eax
  4024a8:	0f 88 ff 02 00 00    	js     4027ad <submitr+0x45c>
  4024ae:	4c 8d ac 24 20 60 00 	lea    0x6020(%rsp),%r13
  4024b5:	00 
  4024b6:	4d 89 e1             	mov    %r12,%r9
  4024b9:	4c 8d 84 24 20 40 00 	lea    0x4020(%rsp),%r8
  4024c0:	00 
  4024c1:	4c 89 f9             	mov    %r15,%rcx
  4024c4:	4c 89 f2             	mov    %r14,%rdx
  4024c7:	be f8 34 40 00       	mov    $0x4034f8,%esi
  4024cc:	4c 89 ef             	mov    %r13,%rdi
  4024cf:	b8 00 00 00 00       	mov    $0x0,%eax
  4024d4:	e8 f7 e9 ff ff       	callq  400ed0 <sprintf@plt>
  4024d9:	48 c7 c1 ff ff ff ff 	mov    $0xffffffffffffffff,%rcx
  4024e0:	b8 00 00 00 00       	mov    $0x0,%eax
  4024e5:	4c 89 ef             	mov    %r13,%rdi
  4024e8:	f2 ae                	repnz scas %es:(%rdi),%al
  4024ea:	48 89 ca             	mov    %rcx,%rdx
  4024ed:	48 f7 d2             	not    %rdx
  4024f0:	48 8d 52 ff          	lea    -0x1(%rdx),%rdx
  4024f4:	4c 89 ee             	mov    %r13,%rsi
  4024f7:	89 df                	mov    %ebx,%edi
  4024f9:	e8 eb fc ff ff       	callq  4021e9 <rio_writen>
  4024fe:	48 85 c0             	test   %rax,%rax
  402501:	0f 88 31 03 00 00    	js     402838 <submitr+0x4e7>
  402507:	89 de                	mov    %ebx,%esi
  402509:	48 8d bc 24 20 80 00 	lea    0x8020(%rsp),%rdi
  402510:	00 
  402511:	e8 bd fb ff ff       	callq  4020d3 <rio_readinitb>
  402516:	ba 00 20 00 00       	mov    $0x2000,%edx
  40251b:	48 8d b4 24 20 60 00 	lea    0x6020(%rsp),%rsi
  402522:	00 
  402523:	48 8d bc 24 20 80 00 	lea    0x8020(%rsp),%rdi
  40252a:	00 
  40252b:	e8 a2 fd ff ff       	callq  4022d2 <rio_readlineb>
  402530:	48 85 c0             	test   %rax,%rax
  402533:	0f 8e 6e 03 00 00    	jle    4028a7 <submitr+0x556>
  402539:	4c 8d 44 24 10       	lea    0x10(%rsp),%r8
  40253e:	48 8d 8c 24 1c 20 00 	lea    0x201c(%rsp),%rcx
  402545:	00 
  402546:	48 8d 94 24 20 20 00 	lea    0x2020(%rsp),%rdx
  40254d:	00 
  40254e:	be 6f 35 40 00       	mov    $0x40356f,%esi
  402553:	48 8d bc 24 20 60 00 	lea    0x6020(%rsp),%rdi
  40255a:	00 
  40255b:	b8 00 00 00 00       	mov    $0x0,%eax
  402560:	e8 fb e8 ff ff       	callq  400e60 <__isoc99_sscanf@plt>
  402565:	48 8d b4 24 20 60 00 	lea    0x6020(%rsp),%rsi
  40256c:	00 
  40256d:	bf 86 35 40 00       	mov    $0x403586,%edi
  402572:	b9 03 00 00 00       	mov    $0x3,%ecx
  402577:	f3 a6                	repz cmpsb %es:(%rdi),%ds:(%rsi)
  402579:	0f 97 c0             	seta   %al
  40257c:	1c 00                	sbb    $0x0,%al
  40257e:	84 c0                	test   %al,%al
  402580:	0f 84 9f 03 00 00    	je     402925 <submitr+0x5d4>
  402586:	ba 00 20 00 00       	mov    $0x2000,%edx
  40258b:	48 8d b4 24 20 60 00 	lea    0x6020(%rsp),%rsi
  402592:	00 
  402593:	48 8d bc 24 20 80 00 	lea    0x8020(%rsp),%rdi
  40259a:	00 
  40259b:	e8 32 fd ff ff       	callq  4022d2 <rio_readlineb>
  4025a0:	48 85 c0             	test   %rax,%rax
  4025a3:	7f c0                	jg     402565 <submitr+0x214>
  4025a5:	48 b8 45 72 72 6f 72 	movabs $0x43203a726f727245,%rax
  4025ac:	3a 20 43 
  4025af:	48 ba 6c 69 65 6e 74 	movabs $0x6e7520746e65696c,%rdx
  4025b6:	20 75 6e 
  4025b9:	48 89 45 00          	mov    %rax,0x0(%rbp)
  4025bd:	48 89 55 08          	mov    %rdx,0x8(%rbp)
  4025c1:	48 b8 61 62 6c 65 20 	movabs $0x206f7420656c6261,%rax
  4025c8:	74 6f 20 
  4025cb:	48 ba 72 65 61 64 20 	movabs $0x6165682064616572,%rdx
  4025d2:	68 65 61 
  4025d5:	48 89 45 10          	mov    %rax,0x10(%rbp)
  4025d9:	48 89 55 18          	mov    %rdx,0x18(%rbp)
  4025dd:	48 b8 64 65 72 73 20 	movabs $0x6f72662073726564,%rax
  4025e4:	66 72 6f 
  4025e7:	48 ba 6d 20 74 68 65 	movabs $0x657220656874206d,%rdx
  4025ee:	20 72 65 
  4025f1:	48 89 45 20          	mov    %rax,0x20(%rbp)
  4025f5:	48 89 55 28          	mov    %rdx,0x28(%rbp)
  4025f9:	48 b8 73 75 6c 74 20 	movabs $0x72657320746c7573,%rax
  402600:	73 65 72 
  402603:	48 89 45 30          	mov    %rax,0x30(%rbp)
  402607:	c7 45 38 76 65 72 00 	movl   $0x726576,0x38(%rbp)
  40260e:	89 df                	mov    %ebx,%edi
  402610:	e8 ab e7 ff ff       	callq  400dc0 <close@plt>
  402615:	b8 ff ff ff ff       	mov    $0xffffffff,%eax
  40261a:	48 81 c4 48 a0 00 00 	add    $0xa048,%rsp
  402621:	5b                   	pop    %rbx
  402622:	5d                   	pop    %rbp
  402623:	41 5c                	pop    %r12
  402625:	41 5d                	pop    %r13
  402627:	41 5e                	pop    %r14
  402629:	41 5f                	pop    %r15
  40262b:	c3                   	retq   
  40262c:	48 b8 45 72 72 6f 72 	movabs $0x43203a726f727245,%rax
  402633:	3a 20 43 
  402636:	48 ba 6c 69 65 6e 74 	movabs $0x6e7520746e65696c,%rdx
  40263d:	20 75 6e 
  402640:	48 89 45 00          	mov    %rax,0x0(%rbp)
  402644:	48 89 55 08          	mov    %rdx,0x8(%rbp)
  402648:	48 b8 61 62 6c 65 20 	movabs $0x206f7420656c6261,%rax
  40264f:	74 6f 20 
  402652:	48 ba 63 72 65 61 74 	movabs $0x7320657461657263,%rdx
  402659:	65 20 73 
  40265c:	48 89 45 10          	mov    %rax,0x10(%rbp)
  402660:	48 89 55 18          	mov    %rdx,0x18(%rbp)
  402664:	c7 45 20 6f 63 6b 65 	movl   $0x656b636f,0x20(%rbp)
  40266b:	66 c7 45 24 74 00    	movw   $0x74,0x24(%rbp)
  402671:	b8 ff ff ff ff       	mov    $0xffffffff,%eax
  402676:	eb a2                	jmp    40261a <submitr+0x2c9>
  402678:	48 b8 45 72 72 6f 72 	movabs $0x44203a726f727245,%rax
  40267f:	3a 20 44 
  402682:	48 ba 4e 53 20 69 73 	movabs $0x6e7520736920534e,%rdx
  402689:	20 75 6e 
  40268c:	48 89 45 00          	mov    %rax,0x0(%rbp)
  402690:	48 89 55 08          	mov    %rdx,0x8(%rbp)
  402694:	48 b8 61 62 6c 65 20 	movabs $0x206f7420656c6261,%rax
  40269b:	74 6f 20 
  40269e:	48 ba 72 65 73 6f 6c 	movabs $0x2065766c6f736572,%rdx
  4026a5:	76 65 20 
  4026a8:	48 89 45 10          	mov    %rax,0x10(%rbp)
  4026ac:	48 89 55 18          	mov    %rdx,0x18(%rbp)
  4026b0:	48 b8 73 65 72 76 65 	movabs $0x6120726576726573,%rax
  4026b7:	72 20 61 
  4026ba:	48 89 45 20          	mov    %rax,0x20(%rbp)
  4026be:	c7 45 28 64 64 72 65 	movl   $0x65726464,0x28(%rbp)
  4026c5:	66 c7 45 2c 73 73    	movw   $0x7373,0x2c(%rbp)
  4026cb:	c6 45 2e 00          	movb   $0x0,0x2e(%rbp)
  4026cf:	89 df                	mov    %ebx,%edi
  4026d1:	e8 ea e6 ff ff       	callq  400dc0 <close@plt>
  4026d6:	b8 ff ff ff ff       	mov    $0xffffffff,%eax
  4026db:	e9 3a ff ff ff       	jmpq   40261a <submitr+0x2c9>
  4026e0:	48 b8 45 72 72 6f 72 	movabs $0x55203a726f727245,%rax
  4026e7:	3a 20 55 
  4026ea:	48 ba 6e 61 62 6c 65 	movabs $0x6f7420656c62616e,%rdx
  4026f1:	20 74 6f 
  4026f4:	48 89 45 00          	mov    %rax,0x0(%rbp)
  4026f8:	48 89 55 08          	mov    %rdx,0x8(%rbp)
  4026fc:	48 b8 20 63 6f 6e 6e 	movabs $0x7463656e6e6f6320,%rax
  402703:	65 63 74 
  402706:	48 ba 20 74 6f 20 74 	movabs $0x20656874206f7420,%rdx
  40270d:	68 65 20 
  402710:	48 89 45 10          	mov    %rax,0x10(%rbp)
  402714:	48 89 55 18          	mov    %rdx,0x18(%rbp)
  402718:	c7 45 20 73 65 72 76 	movl   $0x76726573,0x20(%rbp)
  40271f:	66 c7 45 24 65 72    	movw   $0x7265,0x24(%rbp)
  402725:	c6 45 26 00          	movb   $0x0,0x26(%rbp)
  402729:	89 df                	mov    %ebx,%edi
  40272b:	e8 90 e6 ff ff       	callq  400dc0 <close@plt>
  402730:	b8 ff ff ff ff       	mov    $0xffffffff,%eax
  402735:	e9 e0 fe ff ff       	jmpq   40261a <submitr+0x2c9>
  40273a:	48 b8 45 72 72 6f 72 	movabs $0x52203a726f727245,%rax
  402741:	3a 20 52 
  402744:	48 ba 65 73 75 6c 74 	movabs $0x747320746c757365,%rdx
  40274b:	20 73 74 
  40274e:	48 89 45 00          	mov    %rax,0x0(%rbp)
  402752:	48 89 55 08          	mov    %rdx,0x8(%rbp)
  402756:	48 b8 72 69 6e 67 20 	movabs $0x6f6f7420676e6972,%rax
  40275d:	74 6f 6f 
  402760:	48 ba 20 6c 61 72 67 	movabs $0x202e656772616c20,%rdx
  402767:	65 2e 20 
  40276a:	48 89 45 10          	mov    %rax,0x10(%rbp)
  40276e:	48 89 55 18          	mov    %rdx,0x18(%rbp)
  402772:	48 b8 49 6e 63 72 65 	movabs $0x6573616572636e49,%rax
  402779:	61 73 65 
  40277c:	48 ba 20 53 55 42 4d 	movabs $0x5254494d42555320,%rdx
  402783:	49 54 52 
  402786:	48 89 45 20          	mov    %rax,0x20(%rbp)
  40278a:	48 89 55 28          	mov    %rdx,0x28(%rbp)
  40278e:	48 b8 5f 4d 41 58 42 	movabs $0x46554258414d5f,%rax
  402795:	55 46 00 
  402798:	48 89 45 30          	mov    %rax,0x30(%rbp)
  40279c:	89 df                	mov    %ebx,%edi
  40279e:	e8 1d e6 ff ff       	callq  400dc0 <close@plt>
  4027a3:	b8 ff ff ff ff       	mov    $0xffffffff,%eax
  4027a8:	e9 6d fe ff ff       	jmpq   40261a <submitr+0x2c9>
  4027ad:	48 b8 45 72 72 6f 72 	movabs $0x52203a726f727245,%rax
  4027b4:	3a 20 52 
  4027b7:	48 ba 65 73 75 6c 74 	movabs $0x747320746c757365,%rdx
  4027be:	20 73 74 
  4027c1:	48 89 45 00          	mov    %rax,0x0(%rbp)
  4027c5:	48 89 55 08          	mov    %rdx,0x8(%rbp)
  4027c9:	48 b8 72 69 6e 67 20 	movabs $0x6e6f6320676e6972,%rax
  4027d0:	63 6f 6e 
  4027d3:	48 ba 74 61 69 6e 73 	movabs $0x6e6120736e696174,%rdx
  4027da:	20 61 6e 
  4027dd:	48 89 45 10          	mov    %rax,0x10(%rbp)
  4027e1:	48 89 55 18          	mov    %rdx,0x18(%rbp)
  4027e5:	48 b8 20 69 6c 6c 65 	movabs $0x6c6167656c6c6920,%rax
  4027ec:	67 61 6c 
  4027ef:	48 ba 20 6f 72 20 75 	movabs $0x72706e7520726f20,%rdx
  4027f6:	6e 70 72 
  4027f9:	48 89 45 20          	mov    %rax,0x20(%rbp)
  4027fd:	48 89 55 28          	mov    %rdx,0x28(%rbp)
  402801:	48 b8 69 6e 74 61 62 	movabs $0x20656c6261746e69,%rax
  402808:	6c 65 20 
  40280b:	48 ba 63 68 61 72 61 	movabs $0x6574636172616863,%rdx
  402812:	63 74 65 
  402815:	48 89 45 30          	mov    %rax,0x30(%rbp)
  402819:	48 89 55 38          	mov    %rdx,0x38(%rbp)
  40281d:	66 c7 45 40 72 2e    	movw   $0x2e72,0x40(%rbp)
  402823:	c6 45 42 00          	movb   $0x0,0x42(%rbp)
  402827:	89 df                	mov    %ebx,%edi
  402829:	e8 92 e5 ff ff       	callq  400dc0 <close@plt>
  40282e:	b8 ff ff ff ff       	mov    $0xffffffff,%eax
  402833:	e9 e2 fd ff ff       	jmpq   40261a <submitr+0x2c9>
  402838:	48 b8 45 72 72 6f 72 	movabs $0x43203a726f727245,%rax
  40283f:	3a 20 43 
  402842:	48 ba 6c 69 65 6e 74 	movabs $0x6e7520746e65696c,%rdx
  402849:	20 75 6e 
  40284c:	48 89 45 00          	mov    %rax,0x0(%rbp)
  402850:	48 89 55 08          	mov    %rdx,0x8(%rbp)
  402854:	48 b8 61 62 6c 65 20 	movabs $0x206f7420656c6261,%rax
  40285b:	74 6f 20 
  40285e:	48 ba 77 72 69 74 65 	movabs $0x6f74206574697277,%rdx
  402865:	20 74 6f 
  402868:	48 89 45 10          	mov    %rax,0x10(%rbp)
  40286c:	48 89 55 18          	mov    %rdx,0x18(%rbp)
  402870:	48 b8 20 74 68 65 20 	movabs $0x7365722065687420,%rax
  402877:	72 65 73 
  40287a:	48 ba 75 6c 74 20 73 	movabs $0x7672657320746c75,%rdx
  402881:	65 72 76 
  402884:	48 89 45 20          	mov    %rax,0x20(%rbp)
  402888:	48 89 55 28          	mov    %rdx,0x28(%rbp)
  40288c:	66 c7 45 30 65 72    	movw   $0x7265,0x30(%rbp)
  402892:	c6 45 32 00          	movb   $0x0,0x32(%rbp)
  402896:	89 df                	mov    %ebx,%edi
  402898:	e8 23 e5 ff ff       	callq  400dc0 <close@plt>
  40289d:	b8 ff ff ff ff       	mov    $0xffffffff,%eax
  4028a2:	e9 73 fd ff ff       	jmpq   40261a <submitr+0x2c9>
  4028a7:	48 b8 45 72 72 6f 72 	movabs $0x43203a726f727245,%rax
  4028ae:	3a 20 43 
  4028b1:	48 ba 6c 69 65 6e 74 	movabs $0x6e7520746e65696c,%rdx
  4028b8:	20 75 6e 
  4028bb:	48 89 45 00          	mov    %rax,0x0(%rbp)
  4028bf:	48 89 55 08          	mov    %rdx,0x8(%rbp)
  4028c3:	48 b8 61 62 6c 65 20 	movabs $0x206f7420656c6261,%rax
  4028ca:	74 6f 20 
  4028cd:	48 ba 72 65 61 64 20 	movabs $0x7269662064616572,%rdx
  4028d4:	66 69 72 
  4028d7:	48 89 45 10          	mov    %rax,0x10(%rbp)
  4028db:	48 89 55 18          	mov    %rdx,0x18(%rbp)
  4028df:	48 b8 73 74 20 68 65 	movabs $0x6564616568207473,%rax
  4028e6:	61 64 65 
  4028e9:	48 ba 72 20 66 72 6f 	movabs $0x72206d6f72662072,%rdx
  4028f0:	6d 20 72 
  4028f3:	48 89 45 20          	mov    %rax,0x20(%rbp)
  4028f7:	48 89 55 28          	mov    %rdx,0x28(%rbp)
  4028fb:	48 b8 65 73 75 6c 74 	movabs $0x657320746c757365,%rax
  402902:	20 73 65 
  402905:	48 89 45 30          	mov    %rax,0x30(%rbp)
  402909:	c7 45 38 72 76 65 72 	movl   $0x72657672,0x38(%rbp)
  402910:	c6 45 3c 00          	movb   $0x0,0x3c(%rbp)
  402914:	89 df                	mov    %ebx,%edi
  402916:	e8 a5 e4 ff ff       	callq  400dc0 <close@plt>
  40291b:	b8 ff ff ff ff       	mov    $0xffffffff,%eax
  402920:	e9 f5 fc ff ff       	jmpq   40261a <submitr+0x2c9>
  402925:	ba 00 20 00 00       	mov    $0x2000,%edx
  40292a:	48 8d b4 24 20 60 00 	lea    0x6020(%rsp),%rsi
  402931:	00 
  402932:	48 8d bc 24 20 80 00 	lea    0x8020(%rsp),%rdi
  402939:	00 
  40293a:	e8 93 f9 ff ff       	callq  4022d2 <rio_readlineb>
  40293f:	48 85 c0             	test   %rax,%rax
  402942:	0f 8e 91 00 00 00    	jle    4029d9 <submitr+0x688>
  402948:	8b 94 24 1c 20 00 00 	mov    0x201c(%rsp),%edx
  40294f:	81 fa c8 00 00 00    	cmp    $0xc8,%edx
  402955:	0f 85 02 01 00 00    	jne    402a5d <submitr+0x70c>
  40295b:	48 8d b4 24 20 60 00 	lea    0x6020(%rsp),%rsi
  402962:	00 
  402963:	48 89 ef             	mov    %rbp,%rdi
  402966:	e8 e5 e3 ff ff       	callq  400d50 <strcpy@plt>
  40296b:	89 df                	mov    %ebx,%edi
  40296d:	e8 4e e4 ff ff       	callq  400dc0 <close@plt>
  402972:	bf 80 35 40 00       	mov    $0x403580,%edi
  402977:	b9 04 00 00 00       	mov    $0x4,%ecx
  40297c:	48 89 ee             	mov    %rbp,%rsi
  40297f:	f3 a6                	repz cmpsb %es:(%rdi),%ds:(%rsi)
  402981:	0f 97 c0             	seta   %al
  402984:	1c 00                	sbb    $0x0,%al
  402986:	0f be c0             	movsbl %al,%eax
  402989:	85 c0                	test   %eax,%eax
  40298b:	0f 84 89 fc ff ff    	je     40261a <submitr+0x2c9>
  402991:	bf 84 35 40 00       	mov    $0x403584,%edi
  402996:	b9 05 00 00 00       	mov    $0x5,%ecx
  40299b:	48 89 ee             	mov    %rbp,%rsi
  40299e:	f3 a6                	repz cmpsb %es:(%rdi),%ds:(%rsi)
  4029a0:	0f 97 c0             	seta   %al
  4029a3:	1c 00                	sbb    $0x0,%al
  4029a5:	0f be c0             	movsbl %al,%eax
  4029a8:	85 c0                	test   %eax,%eax
  4029aa:	0f 84 6a fc ff ff    	je     40261a <submitr+0x2c9>
  4029b0:	bf 89 35 40 00       	mov    $0x403589,%edi
  4029b5:	b9 03 00 00 00       	mov    $0x3,%ecx
  4029ba:	48 89 ee             	mov    %rbp,%rsi
  4029bd:	f3 a6                	repz cmpsb %es:(%rdi),%ds:(%rsi)
  4029bf:	0f 97 c0             	seta   %al
  4029c2:	1c 00                	sbb    $0x0,%al
  4029c4:	0f be c0             	movsbl %al,%eax
  4029c7:	85 c0                	test   %eax,%eax
  4029c9:	0f 84 4b fc ff ff    	je     40261a <submitr+0x2c9>
  4029cf:	b8 ff ff ff ff       	mov    $0xffffffff,%eax
  4029d4:	e9 41 fc ff ff       	jmpq   40261a <submitr+0x2c9>
  4029d9:	48 b8 45 72 72 6f 72 	movabs $0x43203a726f727245,%rax
  4029e0:	3a 20 43 
  4029e3:	48 ba 6c 69 65 6e 74 	movabs $0x6e7520746e65696c,%rdx
  4029ea:	20 75 6e 
  4029ed:	48 89 45 00          	mov    %rax,0x0(%rbp)
  4029f1:	48 89 55 08          	mov    %rdx,0x8(%rbp)
  4029f5:	48 b8 61 62 6c 65 20 	movabs $0x206f7420656c6261,%rax
  4029fc:	74 6f 20 
  4029ff:	48 ba 72 65 61 64 20 	movabs $0x6174732064616572,%rdx
  402a06:	73 74 61 
  402a09:	48 89 45 10          	mov    %rax,0x10(%rbp)
  402a0d:	48 89 55 18          	mov    %rdx,0x18(%rbp)
  402a11:	48 b8 74 75 73 20 6d 	movabs $0x7373656d20737574,%rax
  402a18:	65 73 73 
  402a1b:	48 ba 61 67 65 20 66 	movabs $0x6d6f726620656761,%rdx
  402a22:	72 6f 6d 
  402a25:	48 89 45 20          	mov    %rax,0x20(%rbp)
  402a29:	48 89 55 28          	mov    %rdx,0x28(%rbp)
  402a2d:	48 b8 20 72 65 73 75 	movabs $0x20746c7573657220,%rax
  402a34:	6c 74 20 
  402a37:	48 89 45 30          	mov    %rax,0x30(%rbp)
  402a3b:	c7 45 38 73 65 72 76 	movl   $0x76726573,0x38(%rbp)
  402a42:	66 c7 45 3c 65 72    	movw   $0x7265,0x3c(%rbp)
  402a48:	c6 45 3e 00          	movb   $0x0,0x3e(%rbp)
  402a4c:	89 df                	mov    %ebx,%edi
  402a4e:	e8 6d e3 ff ff       	callq  400dc0 <close@plt>
  402a53:	b8 ff ff ff ff       	mov    $0xffffffff,%eax
  402a58:	e9 bd fb ff ff       	jmpq   40261a <submitr+0x2c9>
  402a5d:	48 8d 4c 24 10       	lea    0x10(%rsp),%rcx
  402a62:	be 38 35 40 00       	mov    $0x403538,%esi
  402a67:	48 89 ef             	mov    %rbp,%rdi
  402a6a:	b8 00 00 00 00       	mov    $0x0,%eax
  402a6f:	e8 5c e4 ff ff       	callq  400ed0 <sprintf@plt>
  402a74:	89 df                	mov    %ebx,%edi
  402a76:	e8 45 e3 ff ff       	callq  400dc0 <close@plt>
  402a7b:	b8 ff ff ff ff       	mov    $0xffffffff,%eax
  402a80:	e9 95 fb ff ff       	jmpq   40261a <submitr+0x2c9>

0000000000402a85 <init_timeout>:
  402a85:	85 ff                	test   %edi,%edi
  402a87:	74 26                	je     402aaf <init_timeout+0x2a>
  402a89:	53                   	push   %rbx
  402a8a:	89 fb                	mov    %edi,%ebx
  402a8c:	85 ff                	test   %edi,%edi
  402a8e:	78 18                	js     402aa8 <init_timeout+0x23>
  402a90:	be e5 20 40 00       	mov    $0x4020e5,%esi
  402a95:	bf 0e 00 00 00       	mov    $0xe,%edi
  402a9a:	e8 41 e3 ff ff       	callq  400de0 <signal@plt>
  402a9f:	89 df                	mov    %ebx,%edi
  402aa1:	e8 0a e3 ff ff       	callq  400db0 <alarm@plt>
  402aa6:	5b                   	pop    %rbx
  402aa7:	c3                   	retq   
  402aa8:	bb 00 00 00 00       	mov    $0x0,%ebx
  402aad:	eb e1                	jmp    402a90 <init_timeout+0xb>
  402aaf:	f3 c3                	repz retq 

0000000000402ab1 <init_driver>:
  402ab1:	55                   	push   %rbp
  402ab2:	53                   	push   %rbx
  402ab3:	48 83 ec 18          	sub    $0x18,%rsp
  402ab7:	48 89 fd             	mov    %rdi,%rbp
  402aba:	be 01 00 00 00       	mov    $0x1,%esi
  402abf:	bf 0d 00 00 00       	mov    $0xd,%edi
  402ac4:	e8 17 e3 ff ff       	callq  400de0 <signal@plt>
  402ac9:	be 01 00 00 00       	mov    $0x1,%esi
  402ace:	bf 1d 00 00 00       	mov    $0x1d,%edi
  402ad3:	e8 08 e3 ff ff       	callq  400de0 <signal@plt>
  402ad8:	be 01 00 00 00       	mov    $0x1,%esi
  402add:	bf 1d 00 00 00       	mov    $0x1d,%edi
  402ae2:	e8 f9 e2 ff ff       	callq  400de0 <signal@plt>
  402ae7:	ba 00 00 00 00       	mov    $0x0,%edx
  402aec:	be 01 00 00 00       	mov    $0x1,%esi
  402af1:	bf 02 00 00 00       	mov    $0x2,%edi
  402af6:	e8 05 e4 ff ff       	callq  400f00 <socket@plt>
  402afb:	85 c0                	test   %eax,%eax
  402afd:	78 7c                	js     402b7b <init_driver+0xca>
  402aff:	89 c3                	mov    %eax,%ebx
  402b01:	bf 8c 35 40 00       	mov    $0x40358c,%edi
  402b06:	e8 e5 e2 ff ff       	callq  400df0 <gethostbyname@plt>
  402b0b:	48 85 c0             	test   %rax,%rax
  402b0e:	0f 84 b3 00 00 00    	je     402bc7 <init_driver+0x116>
  402b14:	48 c7 04 24 00 00 00 	movq   $0x0,(%rsp)
  402b1b:	00 
  402b1c:	48 c7 44 24 08 00 00 	movq   $0x0,0x8(%rsp)
  402b23:	00 00 
  402b25:	66 c7 04 24 02 00    	movw   $0x2,(%rsp)
  402b2b:	48 8b 48 18          	mov    0x18(%rax),%rcx
  402b2f:	48 63 50 14          	movslq 0x14(%rax),%rdx
  402b33:	48 8d 74 24 04       	lea    0x4(%rsp),%rsi
  402b38:	48 8b 39             	mov    (%rcx),%rdi
  402b3b:	e8 40 e3 ff ff       	callq  400e80 <bcopy@plt>
  402b40:	66 c7 44 24 02 3c 9a 	movw   $0x9a3c,0x2(%rsp)
  402b47:	ba 10 00 00 00       	mov    $0x10,%edx
  402b4c:	48 89 e6             	mov    %rsp,%rsi
  402b4f:	89 df                	mov    %ebx,%edi
  402b51:	e8 9a e3 ff ff       	callq  400ef0 <connect@plt>
  402b56:	85 c0                	test   %eax,%eax
  402b58:	0f 88 d1 00 00 00    	js     402c2f <init_driver+0x17e>
  402b5e:	89 df                	mov    %ebx,%edi
  402b60:	e8 5b e2 ff ff       	callq  400dc0 <close@plt>
  402b65:	66 c7 45 00 4f 4b    	movw   $0x4b4f,0x0(%rbp)
  402b6b:	c6 45 02 00          	movb   $0x0,0x2(%rbp)
  402b6f:	b8 00 00 00 00       	mov    $0x0,%eax
  402b74:	48 83 c4 18          	add    $0x18,%rsp
  402b78:	5b                   	pop    %rbx
  402b79:	5d                   	pop    %rbp
  402b7a:	c3                   	retq   
  402b7b:	48 b8 45 72 72 6f 72 	movabs $0x43203a726f727245,%rax
  402b82:	3a 20 43 
  402b85:	48 ba 6c 69 65 6e 74 	movabs $0x6e7520746e65696c,%rdx
  402b8c:	20 75 6e 
  402b8f:	48 89 45 00          	mov    %rax,0x0(%rbp)
  402b93:	48 89 55 08          	mov    %rdx,0x8(%rbp)
  402b97:	48 b8 61 62 6c 65 20 	movabs $0x206f7420656c6261,%rax
  402b9e:	74 6f 20 
  402ba1:	48 ba 63 72 65 61 74 	movabs $0x7320657461657263,%rdx
  402ba8:	65 20 73 
  402bab:	48 89 45 10          	mov    %rax,0x10(%rbp)
  402baf:	48 89 55 18          	mov    %rdx,0x18(%rbp)
  402bb3:	c7 45 20 6f 63 6b 65 	movl   $0x656b636f,0x20(%rbp)
  402bba:	66 c7 45 24 74 00    	movw   $0x74,0x24(%rbp)
  402bc0:	b8 ff ff ff ff       	mov    $0xffffffff,%eax
  402bc5:	eb ad                	jmp    402b74 <init_driver+0xc3>
  402bc7:	48 b8 45 72 72 6f 72 	movabs $0x44203a726f727245,%rax
  402bce:	3a 20 44 
  402bd1:	48 ba 4e 53 20 69 73 	movabs $0x6e7520736920534e,%rdx
  402bd8:	20 75 6e 
  402bdb:	48 89 45 00          	mov    %rax,0x0(%rbp)
  402bdf:	48 89 55 08          	mov    %rdx,0x8(%rbp)
  402be3:	48 b8 61 62 6c 65 20 	movabs $0x206f7420656c6261,%rax
  402bea:	74 6f 20 
  402bed:	48 ba 72 65 73 6f 6c 	movabs $0x2065766c6f736572,%rdx
  402bf4:	76 65 20 
  402bf7:	48 89 45 10          	mov    %rax,0x10(%rbp)
  402bfb:	48 89 55 18          	mov    %rdx,0x18(%rbp)
  402bff:	48 b8 73 65 72 76 65 	movabs $0x6120726576726573,%rax
  402c06:	72 20 61 
  402c09:	48 89 45 20          	mov    %rax,0x20(%rbp)
  402c0d:	c7 45 28 64 64 72 65 	movl   $0x65726464,0x28(%rbp)
  402c14:	66 c7 45 2c 73 73    	movw   $0x7373,0x2c(%rbp)
  402c1a:	c6 45 2e 00          	movb   $0x0,0x2e(%rbp)
  402c1e:	89 df                	mov    %ebx,%edi
  402c20:	e8 9b e1 ff ff       	callq  400dc0 <close@plt>
  402c25:	b8 ff ff ff ff       	mov    $0xffffffff,%eax
  402c2a:	e9 45 ff ff ff       	jmpq   402b74 <init_driver+0xc3>
  402c2f:	48 b8 45 72 72 6f 72 	movabs $0x55203a726f727245,%rax
  402c36:	3a 20 55 
  402c39:	48 ba 6e 61 62 6c 65 	movabs $0x6f7420656c62616e,%rdx
  402c40:	20 74 6f 
  402c43:	48 89 45 00          	mov    %rax,0x0(%rbp)
  402c47:	48 89 55 08          	mov    %rdx,0x8(%rbp)
  402c4b:	48 b8 20 63 6f 6e 6e 	movabs $0x7463656e6e6f6320,%rax
  402c52:	65 63 74 
  402c55:	48 ba 20 74 6f 20 73 	movabs $0x76726573206f7420,%rdx
  402c5c:	65 72 76 
  402c5f:	48 89 45 10          	mov    %rax,0x10(%rbp)
  402c63:	48 89 55 18          	mov    %rdx,0x18(%rbp)
  402c67:	66 c7 45 20 65 72    	movw   $0x7265,0x20(%rbp)
  402c6d:	c6 45 22 00          	movb   $0x0,0x22(%rbp)
  402c71:	89 df                	mov    %ebx,%edi
  402c73:	e8 48 e1 ff ff       	callq  400dc0 <close@plt>
  402c78:	b8 ff ff ff ff       	mov    $0xffffffff,%eax
  402c7d:	e9 f2 fe ff ff       	jmpq   402b74 <init_driver+0xc3>

0000000000402c82 <driver_post>:
  402c82:	53                   	push   %rbx
  402c83:	4c 89 cb             	mov    %r9,%rbx
  402c86:	45 85 c0             	test   %r8d,%r8d
  402c89:	75 18                	jne    402ca3 <driver_post+0x21>
  402c8b:	48 85 ff             	test   %rdi,%rdi
  402c8e:	74 05                	je     402c95 <driver_post+0x13>
  402c90:	80 3f 00             	cmpb   $0x0,(%rdi)
  402c93:	75 30                	jne    402cc5 <driver_post+0x43>
  402c95:	66 c7 03 4f 4b       	movw   $0x4b4f,(%rbx)
  402c9a:	c6 43 02 00          	movb   $0x0,0x2(%rbx)
  402c9e:	44 89 c0             	mov    %r8d,%eax
  402ca1:	5b                   	pop    %rbx
  402ca2:	c3                   	retq   
  402ca3:	48 89 ce             	mov    %rcx,%rsi
  402ca6:	bf 99 35 40 00       	mov    $0x403599,%edi
  402cab:	b8 00 00 00 00       	mov    $0x0,%eax
  402cb0:	e8 db e0 ff ff       	callq  400d90 <printf@plt>
  402cb5:	66 c7 03 4f 4b       	movw   $0x4b4f,(%rbx)
  402cba:	c6 43 02 00          	movb   $0x0,0x2(%rbx)
  402cbe:	b8 00 00 00 00       	mov    $0x0,%eax
  402cc3:	eb dc                	jmp    402ca1 <driver_post+0x1f>
  402cc5:	48 83 ec 08          	sub    $0x8,%rsp
  402cc9:	41 51                	push   %r9
  402ccb:	49 89 c9             	mov    %rcx,%r9
  402cce:	49 89 d0             	mov    %rdx,%r8
  402cd1:	48 89 f9             	mov    %rdi,%rcx
  402cd4:	48 89 f2             	mov    %rsi,%rdx
  402cd7:	be 9a 3c 00 00       	mov    $0x3c9a,%esi
  402cdc:	bf 8c 35 40 00       	mov    $0x40358c,%edi
  402ce1:	e8 6b f6 ff ff       	callq  402351 <submitr>
  402ce6:	48 83 c4 10          	add    $0x10,%rsp
  402cea:	eb b5                	jmp    402ca1 <driver_post+0x1f>

0000000000402cec <check>:
  402cec:	89 f8                	mov    %edi,%eax
  402cee:	c1 e8 1c             	shr    $0x1c,%eax
  402cf1:	85 c0                	test   %eax,%eax
  402cf3:	74 1d                	je     402d12 <check+0x26>
  402cf5:	b9 00 00 00 00       	mov    $0x0,%ecx
  402cfa:	83 f9 1f             	cmp    $0x1f,%ecx
  402cfd:	7f 0d                	jg     402d0c <check+0x20>
  402cff:	89 f8                	mov    %edi,%eax
  402d01:	d3 e8                	shr    %cl,%eax
  402d03:	3c 0a                	cmp    $0xa,%al
  402d05:	74 11                	je     402d18 <check+0x2c>
  402d07:	83 c1 08             	add    $0x8,%ecx
  402d0a:	eb ee                	jmp    402cfa <check+0xe>
  402d0c:	b8 01 00 00 00       	mov    $0x1,%eax
  402d11:	c3                   	retq   
  402d12:	b8 00 00 00 00       	mov    $0x0,%eax
  402d17:	c3                   	retq   
  402d18:	b8 00 00 00 00       	mov    $0x0,%eax
  402d1d:	c3                   	retq   

0000000000402d1e <gencookie>:
  402d1e:	53                   	push   %rbx
  402d1f:	83 c7 01             	add    $0x1,%edi
  402d22:	e8 09 e0 ff ff       	callq  400d30 <srandom@plt>
  402d27:	e8 14 e1 ff ff       	callq  400e40 <random@plt>
  402d2c:	89 c3                	mov    %eax,%ebx
  402d2e:	89 c7                	mov    %eax,%edi
  402d30:	e8 b7 ff ff ff       	callq  402cec <check>
  402d35:	85 c0                	test   %eax,%eax
  402d37:	74 ee                	je     402d27 <gencookie+0x9>
  402d39:	89 d8                	mov    %ebx,%eax
  402d3b:	5b                   	pop    %rbx
  402d3c:	c3                   	retq   
  402d3d:	0f 1f 00             	nopl   (%rax)

0000000000402d40 <__libc_csu_init>:
  402d40:	41 57                	push   %r15
  402d42:	41 56                	push   %r14
  402d44:	49 89 d7             	mov    %rdx,%r15
  402d47:	41 55                	push   %r13
  402d49:	41 54                	push   %r12
  402d4b:	4c 8d 25 ae 20 20 00 	lea    0x2020ae(%rip),%r12        # 604e00 <__frame_dummy_init_array_entry>
  402d52:	55                   	push   %rbp
  402d53:	48 8d 2d ae 20 20 00 	lea    0x2020ae(%rip),%rbp        # 604e08 <__init_array_end>
  402d5a:	53                   	push   %rbx
  402d5b:	41 89 fd             	mov    %edi,%r13d
  402d5e:	49 89 f6             	mov    %rsi,%r14
  402d61:	4c 29 e5             	sub    %r12,%rbp
  402d64:	48 83 ec 08          	sub    $0x8,%rsp
  402d68:	48 c1 fd 03          	sar    $0x3,%rbp
  402d6c:	e8 77 df ff ff       	callq  400ce8 <_init>
  402d71:	48 85 ed             	test   %rbp,%rbp
  402d74:	74 20                	je     402d96 <__libc_csu_init+0x56>
  402d76:	31 db                	xor    %ebx,%ebx
  402d78:	0f 1f 84 00 00 00 00 	nopl   0x0(%rax,%rax,1)
  402d7f:	00 
  402d80:	4c 89 fa             	mov    %r15,%rdx
  402d83:	4c 89 f6             	mov    %r14,%rsi
  402d86:	44 89 ef             	mov    %r13d,%edi
  402d89:	41 ff 14 dc          	callq  *(%r12,%rbx,8)
  402d8d:	48 83 c3 01          	add    $0x1,%rbx
  402d91:	48 39 dd             	cmp    %rbx,%rbp
  402d94:	75 ea                	jne    402d80 <__libc_csu_init+0x40>
  402d96:	48 83 c4 08          	add    $0x8,%rsp
  402d9a:	5b                   	pop    %rbx
  402d9b:	5d                   	pop    %rbp
  402d9c:	41 5c                	pop    %r12
  402d9e:	41 5d                	pop    %r13
  402da0:	41 5e                	pop    %r14
  402da2:	41 5f                	pop    %r15
  402da4:	c3                   	retq   
  402da5:	66 66 2e 0f 1f 84 00 	data16 nopw %cs:0x0(%rax,%rax,1)
  402dac:	00 00 00 00 

0000000000402db0 <__libc_csu_fini>:
  402db0:	f3 c3                	repz retq 

Disassembly of section .fini:

0000000000402db4 <_fini>:
  402db4:	48 83 ec 08          	sub    $0x8,%rsp
  402db8:	48 83 c4 08          	add    $0x8,%rsp
  402dbc:	c3                   	retq   
